
========================================================================

** ELF Header Information

    File Name: C:\Users\24668\Desktop\miniRTOS\miniRTOS_STM32F103_ARMCC_Demo\Objects\STM32F103C8T6.axf

    Machine class: ELFCLASS32 (32-bit)
    Data encoding: ELFDATA2LSB (Little endian)
    Header version: EV_CURRENT (Current version)
    Operating System ABI: none
    ABI Version: 0
    File Type: ET_EXEC (Executable) (2)
    Machine: EM_ARM (ARM)

    Image Entry point: 0x080000ed
    Flags: EF_ARM_HASENTRY + EF_ARM_ABI_FLOAT_SOFT (0x05000202)

    ARM ELF revision: 5 (ABI version 2)

    Conforms to Soft float procedure-call standard

    Built with
    Component: ARM Compiler 5.06 update 3 (build 300) Tool: armasm [4d35c6]
    Component: ARM Compiler 5.06 update 3 (build 300) Tool: armlink [4d35c9]

    Header size: 52 bytes (0x34)
    Program header entry size: 32 bytes (0x20)
    Section header entry size: 40 bytes (0x28)

    Program header entries: 1
    Section header entries: 16

    Program header offset: 587860 (0x0008f854)
    Section header offset: 587892 (0x0008f874)

    Section header string table index: 15

========================================================================

** Program header #0 (PT_LOAD) [PF_X + PF_W + PF_R + PF_ARM_ENTRY]
    Size : 19860 bytes (14316 bytes in file)
    Virtual address: 0x08000000 (Alignment 8)


========================================================================

** Section #1 'ER_IROM1' (SHT_PROGBITS) [SHF_ALLOC + SHF_EXECINSTR]
    Size   : 14228 bytes (alignment 4)
    Address: 0x08000000

    $d.realdata
    RESET
    __Vectors
        0x08000000:    20001600    ...     DCD    536876544
        0x08000004:    08000121    !...    DCD    134218017
        0x08000008:    08000e85    ....    DCD    134221445
        0x0800000c:    08000ad9    ....    DCD    134220505
        0x08000010:    08000e81    ....    DCD    134221441
        0x08000014:    08000955    U...    DCD    134220117
        0x08000018:    080026cb    .&..    DCD    134227659
        0x0800001c:    00000000    ....    DCD    0
        0x08000020:    00000000    ....    DCD    0
        0x08000024:    00000000    ....    DCD    0
        0x08000028:    00000000    ....    DCD    0
        0x0800002c:    08000133    3...    DCD    134218035
        0x08000030:    0800097b    {...    DCD    134220155
        0x08000034:    00000000    ....    DCD    0
        0x08000038:    08000145    E...    DCD    134218053
        0x0800003c:    08001ff5    ....    DCD    134225909
        0x08000040:    0800013b    ;...    DCD    134218043
        0x08000044:    0800013b    ;...    DCD    134218043
        0x08000048:    0800013b    ;...    DCD    134218043
        0x0800004c:    0800013b    ;...    DCD    134218043
        0x08000050:    0800013b    ;...    DCD    134218043
        0x08000054:    0800013b    ;...    DCD    134218043
        0x08000058:    0800013b    ;...    DCD    134218043
        0x0800005c:    0800013b    ;...    DCD    134218043
        0x08000060:    0800013b    ;...    DCD    134218043
        0x08000064:    0800013b    ;...    DCD    134218043
        0x08000068:    0800013b    ;...    DCD    134218043
        0x0800006c:    0800013b    ;...    DCD    134218043
        0x08000070:    0800013b    ;...    DCD    134218043
        0x08000074:    0800013b    ;...    DCD    134218043
        0x08000078:    0800013b    ;...    DCD    134218043
        0x0800007c:    0800013b    ;...    DCD    134218043
        0x08000080:    0800013b    ;...    DCD    134218043
        0x08000084:    0800013b    ;...    DCD    134218043
        0x08000088:    0800013b    ;...    DCD    134218043
        0x0800008c:    0800013b    ;...    DCD    134218043
        0x08000090:    0800013b    ;...    DCD    134218043
        0x08000094:    0800013b    ;...    DCD    134218043
        0x08000098:    0800013b    ;...    DCD    134218043
        0x0800009c:    0800013b    ;...    DCD    134218043
        0x080000a0:    0800013b    ;...    DCD    134218043
        0x080000a4:    0800013b    ;...    DCD    134218043
        0x080000a8:    0800013b    ;...    DCD    134218043
        0x080000ac:    0800013b    ;...    DCD    134218043
        0x080000b0:    0800013b    ;...    DCD    134218043
        0x080000b4:    0800013b    ;...    DCD    134218043
        0x080000b8:    00000000    ....    DCD    0
        0x080000bc:    0800013b    ;...    DCD    134218043
        0x080000c0:    0800013b    ;...    DCD    134218043
        0x080000c4:    00000000    ....    DCD    0
        0x080000c8:    00000000    ....    DCD    0
        0x080000cc:    0800013b    ;...    DCD    134218043
        0x080000d0:    00000000    ....    DCD    0
        0x080000d4:    080024d9    .$..    DCD    134227161
        0x080000d8:    0800013b    ;...    DCD    134218043
        0x080000dc:    00000000    ....    DCD    0
        0x080000e0:    0800013b    ;...    DCD    134218043
        0x080000e4:    0800013b    ;...    DCD    134218043
        0x080000e8:    0800013b    ;...    DCD    134218043
    $t
    .ARM.Collect$$$$00000000
    .ARM.Collect$$$$00000001
    __Vectors_End
    __main
    _main_stk
        0x080000ec:    f8dfd00c    ....    LDR      sp,__lit__00000000 ; [0x80000fc] = 0x20001600
    .ARM.Collect$$$$00000004
    _main_scatterload
        0x080000f0:    f000fa74    ..t.    BL       __scatterload ; 0x80005dc
    .ARM.Collect$$$$00000008
    .ARM.Collect$$$$0000000A
    .ARM.Collect$$$$0000000B
    __main_after_scatterload
    _main_clock
    _main_cpp_init
    _main_init
        0x080000f4:    4800        .H      LDR      r0,[pc,#0] ; [0x80000f8] = 0x8002b01
        0x080000f6:    4700        .G      BX       r0
    $d
        0x080000f8:    08002b01    .+..    DCD    134228737
    .ARM.Collect$$$$00002712
    __lit__00000000
    .ARM.Collect$$$$0000000D
    .ARM.Collect$$$$0000000F
    __rt_final_cpp
    __rt_final_exit
        0x080000fc:    20001600    ...     DCD    536876544
    $t
    .emb_text
    __get_PSP
        0x08000100:    f3ef8009    ....    MRS      r0,PSP
        0x08000104:    4770        pG      BX       lr
    __set_PSP
        0x08000106:    f3808809    ....    MSR      PSP,r0
        0x0800010a:    4770        pG      BX       lr
    __get_MSP
        0x0800010c:    f3ef8008    ....    MRS      r0,MSP
        0x08000110:    4770        pG      BX       lr
    __set_MSP
        0x08000112:    f3808808    ....    MSR      MSP,r0
        0x08000116:    4770        pG      BX       lr
    __REV16
        0x08000118:    ba40        @.      REV16    r0,r0
        0x0800011a:    4770        pG      BX       lr
    __REVSH
        0x0800011c:    bac0        ..      REVSH    r0,r0
        0x0800011e:    4770        pG      BX       lr
    .text
    Reset_Handler
        0x08000120:    4806        .H      LDR      r0,[pc,#24] ; [0x800013c] = 0x8001ffd
        0x08000122:    4780        .G      BLX      r0
        0x08000124:    4806        .H      LDR      r0,[pc,#24] ; [0x8000140] = 0x80000ed
        0x08000126:    4700        .G      BX       r0
        0x08000128:    e7fe        ..      B        0x8000128 ; Reset_Handler + 8
        0x0800012a:    e7fe        ..      B        0x800012a ; Reset_Handler + 10
        0x0800012c:    e7fe        ..      B        0x800012c ; Reset_Handler + 12
        0x0800012e:    e7fe        ..      B        0x800012e ; Reset_Handler + 14
        0x08000130:    e7fe        ..      B        0x8000130 ; Reset_Handler + 16
    SVC_Handler
        0x08000132:    e7fe        ..      B        SVC_Handler ; 0x8000132
        0x08000134:    e7fe        ..      B        0x8000134 ; SVC_Handler + 2
        0x08000136:    e7fe        ..      B        0x8000136 ; SVC_Handler + 4
        0x08000138:    e7fe        ..      B        0x8000138 ; SVC_Handler + 6
    ADC1_2_IRQHandler
    CAN1_RX1_IRQHandler
    CAN1_SCE_IRQHandler
    DMA1_Channel1_IRQHandler
    DMA1_Channel2_IRQHandler
    DMA1_Channel3_IRQHandler
    DMA1_Channel4_IRQHandler
    DMA1_Channel5_IRQHandler
    DMA1_Channel6_IRQHandler
    DMA1_Channel7_IRQHandler
    EXTI0_IRQHandler
    EXTI15_10_IRQHandler
    EXTI1_IRQHandler
    EXTI2_IRQHandler
    EXTI3_IRQHandler
    EXTI4_IRQHandler
    EXTI9_5_IRQHandler
    FLASH_IRQHandler
    I2C1_ER_IRQHandler
    I2C1_EV_IRQHandler
    PVD_IRQHandler
    RCC_IRQHandler
    RTCAlarm_IRQHandler
    RTC_IRQHandler
    SPI1_IRQHandler
    TAMPER_IRQHandler
    TIM1_BRK_IRQHandler
    TIM1_CC_IRQHandler
    TIM1_TRG_COM_IRQHandler
    TIM1_UP_IRQHandler
    TIM2_IRQHandler
    TIM3_IRQHandler
    USART2_IRQHandler
    USBWakeUp_IRQHandler
    USB_HP_CAN1_TX_IRQHandler
    USB_LP_CAN1_RX0_IRQHandler
    WWDG_IRQHandler
        0x0800013a:    e7fe        ..      B        ADC1_2_IRQHandler ; 0x800013a
    $d
        0x0800013c:    08001ffd    ....    DCD    134225917
        0x08000140:    080000ed    ....    DCD    134217965
    $t
    .text
    PendSV_Handler
        0x08000144:    f3ef8210    ....    MRS      r2,PRIMASK
        0x08000148:    b672        r.      CPSID    i
        0x0800014a:    f3ef8009    ....    MRS      r0,PSP
        0x0800014e:    e9200ff0     ...    STMDB    r0!,{r4-r11}
        0x08000152:    4908        .I      LDR      r1,[pc,#32] ; [0x8000174] = 0x20000034
        0x08000154:    680c        .h      LDR      r4,[r1,#0]
        0x08000156:    4b08        .K      LDR      r3,[pc,#32] ; [0x8000178] = 0x20000198
        0x08000158:    f8430024    C.$.    STR      r0,[r3,r4,LSL #2]
        0x0800015c:    4c07        .L      LDR      r4,[pc,#28] ; [0x800017c] = 0x20000038
        0x0800015e:    6824        $h      LDR      r4,[r4,#0]
        0x08000160:    600c        .`      STR      r4,[r1,#0]
        0x08000162:    f8530024    S.$.    LDR      r0,[r3,r4,LSL #2]
        0x08000166:    e8b00ff0    ....    LDM      r0!,{r4-r11}
        0x0800016a:    f3808809    ....    MSR      PSP,r0
        0x0800016e:    f3828810    ....    MSR      PRIMASK,r2
        0x08000172:    4770        pG      BX       lr
    $d
        0x08000174:    20000034    4..     DCD    536870964
        0x08000178:    20000198    ...     DCD    536871320
        0x0800017c:    20000038    8..     DCD    536870968
    $t
    .text
    __aeabi_memset
    __aeabi_memset4
    __aeabi_memset8
        0x08000180:    b2d2        ..      UXTB     r2,r2
        0x08000182:    e001        ..      B        0x8000188 ; __aeabi_memset + 8
        0x08000184:    f8002b01    ...+    STRB     r2,[r0],#1
        0x08000188:    1e49        I.      SUBS     r1,r1,#1
        0x0800018a:    d2fb        ..      BCS      0x8000184 ; __aeabi_memset + 4
        0x0800018c:    4770        pG      BX       lr
    __aeabi_memclr
    __aeabi_memclr4
    __aeabi_memclr8
        0x0800018e:    2200        ."      MOVS     r2,#0
        0x08000190:    e7f6        ..      B        __aeabi_memset ; 0x8000180
    _memset$wrapper
        0x08000192:    b510        ..      PUSH     {r4,lr}
        0x08000194:    4613        .F      MOV      r3,r2
        0x08000196:    460a        .F      MOV      r2,r1
        0x08000198:    4604        .F      MOV      r4,r0
        0x0800019a:    4619        .F      MOV      r1,r3
        0x0800019c:    f7fffff0    ....    BL       __aeabi_memset ; 0x8000180
        0x080001a0:    4620         F      MOV      r0,r4
        0x080001a2:    bd10        ..      POP      {r4,pc}
    .text
    __aeabi_dadd
        0x080001a4:    e92d4ffe    -..O    PUSH     {r1-r11,lr}
        0x080001a8:    4680        .F      MOV      r8,r0
        0x080001aa:    ea810003    ....    EOR      r0,r1,r3
        0x080001ae:    0fc0        ..      LSRS     r0,r0,#31
        0x080001b0:    460c        .F      MOV      r4,r1
        0x080001b2:    9000        ..      STR      r0,[sp,#0]
        0x080001b4:    f0214100    !..A    BIC      r1,r1,#0x80000000
        0x080001b8:    f0234500    #..E    BIC      r5,r3,#0x80000000
        0x080001bc:    ebb80002    ....    SUBS     r0,r8,r2
        0x080001c0:    41a9        .A      SBCS     r1,r1,r5
        0x080001c2:    d205        ..      BCS      0x80001d0 ; __aeabi_dadd + 44
        0x080001c4:    4640        @F      MOV      r0,r8
        0x080001c6:    4621        !F      MOV      r1,r4
        0x080001c8:    4690        .F      MOV      r8,r2
        0x080001ca:    461c        .F      MOV      r4,r3
        0x080001cc:    460b        .F      MOV      r3,r1
        0x080001ce:    4602        .F      MOV      r2,r0
        0x080001d0:    f0234000    #..@    BIC      r0,r3,#0x80000000
        0x080001d4:    4310        .C      ORRS     r0,r0,r2
        0x080001d6:    d047        G.      BEQ      0x8000268 ; __aeabi_dadd + 196
        0x080001d8:    0d27        '.      LSRS     r7,r4,#20
        0x080001da:    f3c7000a    ....    UBFX     r0,r7,#0,#11
        0x080001de:    f3c3510a    ...Q    UBFX     r1,r3,#20,#11
        0x080001e2:    9002        ..      STR      r0,[sp,#8]
        0x080001e4:    1a40        @.      SUBS     r0,r0,r1
        0x080001e6:    9001        ..      STR      r0,[sp,#4]
        0x080001e8:    2840        @(      CMP      r0,#0x40
        0x080001ea:    da6b        k.      BGE      0x80002c4 ; __aeabi_dadd + 288
        0x080001ec:    f3c30013    ....    UBFX     r0,r3,#0,#20
        0x080001f0:    f4401b80    @...    ORR      r11,r0,#0x100000
        0x080001f4:    9800        ..      LDR      r0,[sp,#0]
        0x080001f6:    4692        .F      MOV      r10,r2
        0x080001f8:    b120         .      CBZ      r0,0x8000204 ; __aeabi_dadd + 96
        0x080001fa:    2300        .#      MOVS     r3,#0
        0x080001fc:    ebd20a03    ....    RSBS     r10,r2,r3
        0x08000200:    eb630b0b    c...    SBC      r11,r3,r11
        0x08000204:    9801        ..      LDR      r0,[sp,#4]
        0x08000206:    4659        YF      MOV      r1,r11
        0x08000208:    f1c00240    ..@.    RSB      r2,r0,#0x40
        0x0800020c:    4650        PF      MOV      r0,r10
        0x0800020e:    f000f957    ..W.    BL       __aeabi_llsl ; 0x80004c0
        0x08000212:    4606        .F      MOV      r6,r0
        0x08000214:    460d        .F      MOV      r5,r1
        0x08000216:    4650        PF      MOV      r0,r10
        0x08000218:    4659        YF      MOV      r1,r11
        0x0800021a:    9a01        ..      LDR      r2,[sp,#4]
        0x0800021c:    f000f96f    ..o.    BL       __aeabi_lasr ; 0x80004fe
        0x08000220:    eb100008    ....    ADDS     r0,r0,r8
        0x08000224:    4161        aA      ADCS     r1,r1,r4
        0x08000226:    2400        .$      MOVS     r4,#0
        0x08000228:    ea875211    ...R    EOR      r2,r7,r1,LSR #20
        0x0800022c:    ea8473e7    ...s    EOR      r3,r4,r7,ASR #31
        0x08000230:    431a        .C      ORRS     r2,r2,r3
        0x08000232:    d040        @.      BEQ      0x80002b6 ; __aeabi_dadd + 274
        0x08000234:    9a00        ..      LDR      r2,[sp,#0]
        0x08000236:    b362        b.      CBZ      r2,0x8000292 ; __aeabi_dadd + 238
        0x08000238:    9a01        ..      LDR      r2,[sp,#4]
        0x0800023a:    2a01        .*      CMP      r2,#1
        0x0800023c:    ea4f5207    O..R    LSL      r2,r7,#20
        0x08000240:    dc15        ..      BGT      0x800026e ; __aeabi_dadd + 202
        0x08000242:    1b00        ..      SUBS     r0,r0,r4
        0x08000244:    eb610102    a...    SBC      r1,r1,r2
        0x08000248:    f04f4200    O..B    MOV      r2,#0x80000000
        0x0800024c:    ea025207    ...R    AND      r2,r2,r7,LSL #20
        0x08000250:    e9cd4200    ...B    STRD     r4,r2,[sp,#0]
        0x08000254:    1c00        ..      ADDS     r0,r0,#0
        0x08000256:    f5411180    A...    ADC      r1,r1,#0x100000
        0x0800025a:    4632        2F      MOV      r2,r6
        0x0800025c:    462b        +F      MOV      r3,r5
        0x0800025e:    f000f96f    ..o.    BL       _double_epilogue ; 0x8000540
        0x08000262:    b003        ..      ADD      sp,sp,#0xc
        0x08000264:    e8bd8ff0    ....    POP      {r4-r11,pc}
        0x08000268:    4640        @F      MOV      r0,r8
        0x0800026a:    4621        !F      MOV      r1,r4
        0x0800026c:    e7f9        ..      B        0x8000262 ; __aeabi_dadd + 190
        0x0800026e:    1b00        ..      SUBS     r0,r0,r4
        0x08000270:    eb610102    a...    SBC      r1,r1,r2
        0x08000274:    1c00        ..      ADDS     r0,r0,#0
        0x08000276:    f5411380    A...    ADC      r3,r1,#0x100000
        0x0800027a:    1800        ..      ADDS     r0,r0,r0
        0x0800027c:    415b        [A      ADCS     r3,r3,r3
        0x0800027e:    1820         .      ADDS     r0,r4,r0
        0x08000280:    f5a21700    ....    SUB      r7,r2,#0x200000
        0x08000284:    eb470103    G...    ADC      r1,r7,r3
        0x08000288:    ea4070d5    @..p    ORR      r0,r0,r5,LSR #31
        0x0800028c:    19b6        ..      ADDS     r6,r6,r6
        0x0800028e:    416d        mA      ADCS     r5,r5,r5
        0x08000290:    e011        ..      B        0x80002b6 ; __aeabi_dadd + 274
        0x08000292:    086d        m.      LSRS     r5,r5,#1
        0x08000294:    ea4f0636    O.6.    RRX      r6,r6
        0x08000298:    ea4575c0    E..u    ORR      r5,r5,r0,LSL #31
        0x0800029c:    ea4f5207    O..R    LSL      r2,r7,#20
        0x080002a0:    1b00        ..      SUBS     r0,r0,r4
        0x080002a2:    eb610102    a...    SBC      r1,r1,r2
        0x080002a6:    1c00        ..      ADDS     r0,r0,#0
        0x080002a8:    f5411180    A...    ADC      r1,r1,#0x100000
        0x080002ac:    0849        I.      LSRS     r1,r1,#1
        0x080002ae:    ea4f0030    O.0.    RRX      r0,r0
        0x080002b2:    1900        ..      ADDS     r0,r0,r4
        0x080002b4:    4151        QA      ADCS     r1,r1,r2
        0x080002b6:    4632        2F      MOV      r2,r6
        0x080002b8:    462b        +F      MOV      r3,r5
        0x080002ba:    b003        ..      ADD      sp,sp,#0xc
        0x080002bc:    e8bd4ff0    ...O    POP      {r4-r11,lr}
        0x080002c0:    f000b92f    ../.    B.W      __I$use$fp ; 0x8000522
        0x080002c4:    9800        ..      LDR      r0,[sp,#0]
        0x080002c6:    2201        ."      MOVS     r2,#1
        0x080002c8:    0040        @.      LSLS     r0,r0,#1
        0x080002ca:    2300        .#      MOVS     r3,#0
        0x080002cc:    ebd00202    ....    RSBS     r2,r0,r2
        0x080002d0:    eb6373e0    c..s    SBC      r3,r3,r0,ASR #31
        0x080002d4:    9800        ..      LDR      r0,[sp,#0]
        0x080002d6:    4621        !F      MOV      r1,r4
        0x080002d8:    ea4f74e0    O..t    ASR      r4,r0,#31
        0x080002dc:    ebb80000    ....    SUBS     r0,r8,r0
        0x080002e0:    eb610104    a...    SBC      r1,r1,r4
        0x080002e4:    e7e9        ..      B        0x80002ba ; __aeabi_dadd + 278
    __aeabi_dsub
        0x080002e6:    f0834300    ...C    EOR      r3,r3,#0x80000000
        0x080002ea:    e75b        [.      B        __aeabi_dadd ; 0x80001a4
    __aeabi_drsub
        0x080002ec:    f0814100    ...A    EOR      r1,r1,#0x80000000
        0x080002f0:    e758        X.      B        __aeabi_dadd ; 0x80001a4
    .text
    __aeabi_dmul
        0x080002f2:    e92d4ffe    -..O    PUSH     {r1-r11,lr}
        0x080002f6:    ea810403    ....    EOR      r4,r1,r3
        0x080002fa:    f0044400    ...D    AND      r4,r4,#0x80000000
        0x080002fe:    f0214100    !..A    BIC      r1,r1,#0x80000000
        0x08000302:    9400        ..      STR      r4,[sp,#0]
        0x08000304:    f04f0b00    O...    MOV      r11,#0
        0x08000308:    f0234300    #..C    BIC      r3,r3,#0x80000000
        0x0800030c:    ea500401    P...    ORRS     r4,r0,r1
        0x08000310:    d05e        ^.      BEQ      0x80003d0 ; __aeabi_dmul + 222
        0x08000312:    ea520403    R...    ORRS     r4,r2,r3
        0x08000316:    d05b        [.      BEQ      0x80003d0 ; __aeabi_dmul + 222
        0x08000318:    f3c3540a    ...T    UBFX     r4,r3,#20,#11
        0x0800031c:    f3c1550a    ...U    UBFX     r5,r1,#20,#11
        0x08000320:    442c        ,D      ADD      r4,r4,r5
        0x08000322:    f2a434f3    ...4    SUB      r4,r4,#0x3f3
        0x08000326:    9401        ..      STR      r4,[sp,#4]
        0x08000328:    fba05402    ...T    UMULL    r5,r4,r0,r2
        0x0800032c:    f3c10113    ....    UBFX     r1,r1,#0,#20
        0x08000330:    f4411180    A...    ORR      r1,r1,#0x100000
        0x08000334:    f3c30313    ....    UBFX     r3,r3,#0,#20
        0x08000338:    f4431380    C...    ORR      r3,r3,#0x100000
        0x0800033c:    fb014402    ...D    MLA      r4,r1,r2,r4
        0x08000340:    fb004e03    ...N    MLA      lr,r0,r3,r4
        0x08000344:    0a84        ..      LSRS     r4,r0,#10
        0x08000346:    0a97        ..      LSRS     r7,r2,#10
        0x08000348:    ea445481    D..T    ORR      r4,r4,r1,LSL #22
        0x0800034c:    ea475783    G..W    ORR      r7,r7,r3,LSL #22
        0x08000350:    fba46807    ...h    UMULL    r6,r8,r4,r7
        0x08000354:    9502        ..      STR      r5,[sp,#8]
        0x08000356:    0a8d        ..      LSRS     r5,r1,#10
        0x08000358:    fb058507    ....    MLA      r5,r5,r7,r8
        0x0800035c:    ea4f2c93    O..,    LSR      r12,r3,#10
        0x08000360:    fb04540c    ...T    MLA      r4,r4,r12,r5
        0x08000364:    0527        '.      LSLS     r7,r4,#20
        0x08000366:    9d02        ..      LDR      r5,[sp,#8]
        0x08000368:    ea4f5806    O..X    LSL      r8,r6,#20
        0x0800036c:    ea473716    G..7    ORR      r7,r7,r6,LSR #12
        0x08000370:    ebb50508    ....    SUBS     r5,r5,r8
        0x08000374:    eb6e0c07    n...    SBC      r12,lr,r7
        0x08000378:    0e87        ..      LSRS     r7,r0,#26
        0x0800037a:    0e92        ..      LSRS     r2,r2,#26
        0x0800037c:    ea471781    G...    ORR      r7,r7,r1,LSL #6
        0x08000380:    ea421283    B...    ORR      r2,r2,r3,LSL #6
        0x08000384:    fba70102    ....    UMULL    r0,r1,r7,r2
        0x08000388:    ebb6010b    ....    SUBS     r1,r6,r11
        0x0800038c:    eb640400    d...    SBC      r4,r4,r0
        0x08000390:    0d2b        +.      LSRS     r3,r5,#20
        0x08000392:    ea43330c    C..3    ORR      r3,r3,r12,LSL #12
        0x08000396:    185e        ^.      ADDS     r6,r3,r1
        0x08000398:    eb44501c    D..P    ADC      r0,r4,r12,LSR #20
        0x0800039c:    46da        .F      MOV      r10,r11
        0x0800039e:    4651        QF      MOV      r1,r10
        0x080003a0:    fbe70102    ....    UMLAL    r0,r1,r7,r2
        0x080003a4:    f3c50413    ....    UBFX     r4,r5,#0,#20
        0x080003a8:    ea4f330b    O..3    LSL      r3,r11,#12
        0x080003ac:    ea435314    C..S    ORR      r3,r3,r4,LSR #20
        0x080003b0:    ea4f3204    O..2    LSL      r2,r4,#12
        0x080003b4:    9c01        ..      LDR      r4,[sp,#4]
        0x080003b6:    ea430306    C...    ORR      r3,r3,r6
        0x080003ba:    f1a4040c    ....    SUB      r4,r4,#0xc
        0x080003be:    9402        ..      STR      r4,[sp,#8]
        0x080003c0:    9c00        ..      LDR      r4,[sp,#0]
        0x080003c2:    e9cdb400    ....    STRD     r11,r4,[sp,#0]
        0x080003c6:    f000f8bb    ....    BL       _double_epilogue ; 0x8000540
        0x080003ca:    b003        ..      ADD      sp,sp,#0xc
        0x080003cc:    e8bd8ff0    ....    POP      {r4-r11,pc}
        0x080003d0:    2000        .       MOVS     r0,#0
        0x080003d2:    4601        .F      MOV      r1,r0
        0x080003d4:    e7f9        ..      B        0x80003ca ; __aeabi_dmul + 216
    .text
    __aeabi_i2d
        0x080003d6:    b50e        ..      PUSH     {r1-r3,lr}
        0x080003d8:    0fc1        ..      LSRS     r1,r0,#31
        0x080003da:    ea8070e0    ...p    EOR      r0,r0,r0,ASR #31
        0x080003de:    4408        .D      ADD      r0,r0,r1
        0x080003e0:    07ca        ..      LSLS     r2,r1,#31
        0x080003e2:    2100        .!      MOVS     r1,#0
        0x080003e4:    f2404333    @.3C    MOV      r3,#0x433
        0x080003e8:    e88d000e    ....    STM      sp,{r1-r3}
        0x080003ec:    460a        .F      MOV      r2,r1
        0x080003ee:    460b        .F      MOV      r3,r1
        0x080003f0:    f000f8a6    ....    BL       _double_epilogue ; 0x8000540
        0x080003f4:    b003        ..      ADD      sp,sp,#0xc
        0x080003f6:    bd00        ..      POP      {pc}
    .text
    __aeabi_d2iz
        0x080003f8:    b570        p.      PUSH     {r4-r6,lr}
        0x080003fa:    f3c1520a    ...R    UBFX     r2,r1,#20,#11
        0x080003fe:    f0014500    ...E    AND      r5,r1,#0x80000000
        0x08000402:    2400        .$      MOVS     r4,#0
        0x08000404:    f3c10113    ....    UBFX     r1,r1,#0,#20
        0x08000408:    f24033ff    @..3    MOV      r3,#0x3ff
        0x0800040c:    f4411180    A...    ORR      r1,r1,#0x100000
        0x08000410:    429a        .B      CMP      r2,r3
        0x08000412:    da01        ..      BGE      0x8000418 ; __aeabi_d2iz + 32
        0x08000414:    2000        .       MOVS     r0,#0
        0x08000416:    bd70        p.      POP      {r4-r6,pc}
        0x08000418:    f2404333    @.3C    MOV      r3,#0x433
        0x0800041c:    429a        .B      CMP      r2,r3
        0x0800041e:    f2a24233    ..3B    SUB      r2,r2,#0x433
        0x08000422:    dc03        ..      BGT      0x800042c ; __aeabi_d2iz + 52
        0x08000424:    4252        RB      RSBS     r2,r2,#0
        0x08000426:    f000f85a    ..Z.    BL       __aeabi_llsr ; 0x80004de
        0x0800042a:    e000        ..      B        0x800042e ; __aeabi_d2iz + 54
        0x0800042c:    4090        .@      LSLS     r0,r0,r2
        0x0800042e:    432c        ,C      ORRS     r4,r4,r5
        0x08000430:    d0f1        ..      BEQ      0x8000416 ; __aeabi_d2iz + 30
        0x08000432:    4240        @B      RSBS     r0,r0,#0
        0x08000434:    bd70        p.      POP      {r4-r6,pc}
    .text
    __aeabi_d2uiz
        0x08000436:    f3c1520a    ...R    UBFX     r2,r1,#20,#11
        0x0800043a:    b510        ..      PUSH     {r4,lr}
        0x0800043c:    f3c10113    ....    UBFX     r1,r1,#0,#20
        0x08000440:    f24033ff    @..3    MOV      r3,#0x3ff
        0x08000444:    f4411180    A...    ORR      r1,r1,#0x100000
        0x08000448:    429a        .B      CMP      r2,r3
        0x0800044a:    da01        ..      BGE      0x8000450 ; __aeabi_d2uiz + 26
        0x0800044c:    2000        .       MOVS     r0,#0
        0x0800044e:    bd10        ..      POP      {r4,pc}
        0x08000450:    f2404333    @.3C    MOV      r3,#0x433
        0x08000454:    429a        .B      CMP      r2,r3
        0x08000456:    f2a24233    ..3B    SUB      r2,r2,#0x433
        0x0800045a:    dc03        ..      BGT      0x8000464 ; __aeabi_d2uiz + 46
        0x0800045c:    4252        RB      RSBS     r2,r2,#0
        0x0800045e:    f000f83e    ..>.    BL       __aeabi_llsr ; 0x80004de
        0x08000462:    bd10        ..      POP      {r4,pc}
        0x08000464:    4090        .@      LSLS     r0,r0,r2
        0x08000466:    bd10        ..      POP      {r4,pc}
    .text
    __aeabi_f2d
        0x08000468:    f0004200    ...B    AND      r2,r0,#0x80000000
        0x0800046c:    f0304000    0..@    BICS     r0,r0,#0x80000000
        0x08000470:    d00a        ..      BEQ      0x8000488 ; __aeabi_f2d + 32
        0x08000472:    0dc1        ..      LSRS     r1,r0,#23
        0x08000474:    f5017160    ..`q    ADD      r1,r1,#0x380
        0x08000478:    f3c00016    ....    UBFX     r0,r0,#0,#23
        0x0800047c:    ea425101    B..Q    ORR      r1,r2,r1,LSL #20
        0x08000480:    08c2        ..      LSRS     r2,r0,#3
        0x08000482:    0740        @.      LSLS     r0,r0,#29
        0x08000484:    4311        .C      ORRS     r1,r1,r2
        0x08000486:    4770        pG      BX       lr
        0x08000488:    2000        .       MOVS     r0,#0
        0x0800048a:    4601        .F      MOV      r1,r0
        0x0800048c:    4770        pG      BX       lr
        0x0800048e:    0000        ..      MOVS     r0,r0
    .text
    __aeabi_cdrcmple
        0x08000490:    b530        0.      PUSH     {r4,r5,lr}
        0x08000492:    1e04        ..      SUBS     r4,r0,#0
        0x08000494:    f1710400    q...    SBCS     r4,r1,#0
        0x08000498:    db04        ..      BLT      0x80004a4 ; __aeabi_cdrcmple + 20
        0x0800049a:    f04f4400    O..D    MOV      r4,#0x80000000
        0x0800049e:    4240        @B      RSBS     r0,r0,#0
        0x080004a0:    eb640101    d...    SBC      r1,r4,r1
        0x080004a4:    1e14        ..      SUBS     r4,r2,#0
        0x080004a6:    f1730400    s...    SBCS     r4,r3,#0
        0x080004aa:    db05        ..      BLT      0x80004b8 ; __aeabi_cdrcmple + 40
        0x080004ac:    461c        .F      MOV      r4,r3
        0x080004ae:    f04f4300    O..C    MOV      r3,#0x80000000
        0x080004b2:    4252        RB      RSBS     r2,r2,#0
        0x080004b4:    eb630304    c...    SBC      r3,r3,r4
        0x080004b8:    4299        .B      CMP      r1,r3
        0x080004ba:    bf08        ..      IT       EQ
        0x080004bc:    4290        .B      CMPEQ    r0,r2
        0x080004be:    bd30        0.      POP      {r4,r5,pc}
    .text
    __aeabi_llsl
    _ll_shift_l
        0x080004c0:    2a20         *      CMP      r2,#0x20
        0x080004c2:    db04        ..      BLT      0x80004ce ; __aeabi_llsl + 14
        0x080004c4:    3a20         :      SUBS     r2,r2,#0x20
        0x080004c6:    fa00f102    ....    LSL      r1,r0,r2
        0x080004ca:    2000        .       MOVS     r0,#0
        0x080004cc:    4770        pG      BX       lr
        0x080004ce:    4091        .@      LSLS     r1,r1,r2
        0x080004d0:    f1c20320    .. .    RSB      r3,r2,#0x20
        0x080004d4:    fa20f303     ...    LSR      r3,r0,r3
        0x080004d8:    4319        .C      ORRS     r1,r1,r3
        0x080004da:    4090        .@      LSLS     r0,r0,r2
        0x080004dc:    4770        pG      BX       lr
    .text
    __aeabi_llsr
    _ll_ushift_r
        0x080004de:    2a20         *      CMP      r2,#0x20
        0x080004e0:    db04        ..      BLT      0x80004ec ; __aeabi_llsr + 14
        0x080004e2:    3a20         :      SUBS     r2,r2,#0x20
        0x080004e4:    fa21f002    !...    LSR      r0,r1,r2
        0x080004e8:    2100        .!      MOVS     r1,#0
        0x080004ea:    4770        pG      BX       lr
        0x080004ec:    fa21f302    !...    LSR      r3,r1,r2
        0x080004f0:    40d0        .@      LSRS     r0,r0,r2
        0x080004f2:    f1c20220    .. .    RSB      r2,r2,#0x20
        0x080004f6:    4091        .@      LSLS     r1,r1,r2
        0x080004f8:    4308        .C      ORRS     r0,r0,r1
        0x080004fa:    4619        .F      MOV      r1,r3
        0x080004fc:    4770        pG      BX       lr
    .text
    __aeabi_lasr
    _ll_sshift_r
        0x080004fe:    2a20         *      CMP      r2,#0x20
        0x08000500:    db06        ..      BLT      0x8000510 ; __aeabi_lasr + 18
        0x08000502:    17cb        ..      ASRS     r3,r1,#31
        0x08000504:    3a20         :      SUBS     r2,r2,#0x20
        0x08000506:    fa41f002    A...    ASR      r0,r1,r2
        0x0800050a:    ea4373e0    C..s    ORR      r3,r3,r0,ASR #31
        0x0800050e:    e006        ..      B        0x800051e ; __aeabi_lasr + 32
        0x08000510:    fa41f302    A...    ASR      r3,r1,r2
        0x08000514:    40d0        .@      LSRS     r0,r0,r2
        0x08000516:    f1c20220    .. .    RSB      r2,r2,#0x20
        0x0800051a:    4091        .@      LSLS     r1,r1,r2
        0x0800051c:    4308        .C      ORRS     r0,r0,r1
        0x0800051e:    4619        .F      MOV      r1,r3
        0x08000520:    4770        pG      BX       lr
    .text
    .text
    __I$use$fp
    _double_round
        0x08000522:    b510        ..      PUSH     {r4,lr}
        0x08000524:    1e14        ..      SUBS     r4,r2,#0
        0x08000526:    f1730400    s...    SBCS     r4,r3,#0
        0x0800052a:    da08        ..      BGE      0x800053e ; __I$use$fp + 28
        0x0800052c:    1c40        @.      ADDS     r0,r0,#1
        0x0800052e:    f1410100    A...    ADC      r1,r1,#0
        0x08000532:    1892        ..      ADDS     r2,r2,r2
        0x08000534:    415b        [A      ADCS     r3,r3,r3
        0x08000536:    431a        .C      ORRS     r2,r2,r3
        0x08000538:    d101        ..      BNE      0x800053e ; __I$use$fp + 28
        0x0800053a:    f0200001     ...    BIC      r0,r0,#1
        0x0800053e:    bd10        ..      POP      {r4,pc}
    _double_epilogue
        0x08000540:    e92d4df0    -..M    PUSH     {r4-r8,r10,r11,lr}
        0x08000544:    4692        .F      MOV      r10,r2
        0x08000546:    469b        .F      MOV      r11,r3
        0x08000548:    b111        ..      CBZ      r1,0x8000550 ; _double_epilogue + 16
        0x0800054a:    fab1f281    ....    CLZ      r2,r1
        0x0800054e:    e002        ..      B        0x8000556 ; _double_epilogue + 22
        0x08000550:    fab0f280    ....    CLZ      r2,r0
        0x08000554:    3220         2      ADDS     r2,r2,#0x20
        0x08000556:    4690        .F      MOV      r8,r2
        0x08000558:    f7ffffb2    ....    BL       __aeabi_llsl ; 0x80004c0
        0x0800055c:    4604        .F      MOV      r4,r0
        0x0800055e:    460f        .F      MOV      r7,r1
        0x08000560:    ea40000a    @...    ORR      r0,r0,r10
        0x08000564:    ea41010b    A...    ORR      r1,r1,r11
        0x08000568:    4653        SF      MOV      r3,r10
        0x0800056a:    465a        ZF      MOV      r2,r11
        0x0800056c:    4308        .C      ORRS     r0,r0,r1
        0x0800056e:    d013        ..      BEQ      0x8000598 ; _double_epilogue + 88
        0x08000570:    4611        .F      MOV      r1,r2
        0x08000572:    ea530001    S...    ORRS     r0,r3,r1
        0x08000576:    d019        ..      BEQ      0x80005ac ; _double_epilogue + 108
        0x08000578:    f1c80240    ..@.    RSB      r2,r8,#0x40
        0x0800057c:    4650        PF      MOV      r0,r10
        0x0800057e:    f7ffffae    ....    BL       __aeabi_llsr ; 0x80004de
        0x08000582:    4605        .F      MOV      r5,r0
        0x08000584:    460e        .F      MOV      r6,r1
        0x08000586:    4650        PF      MOV      r0,r10
        0x08000588:    4659        YF      MOV      r1,r11
        0x0800058a:    4642        BF      MOV      r2,r8
        0x0800058c:    f7ffff98    ....    BL       __aeabi_llsl ; 0x80004c0
        0x08000590:    4308        .C      ORRS     r0,r0,r1
        0x08000592:    d005        ..      BEQ      0x80005a0 ; _double_epilogue + 96
        0x08000594:    2001        .       MOVS     r0,#1
        0x08000596:    e004        ..      B        0x80005a2 ; _double_epilogue + 98
        0x08000598:    4620         F      MOV      r0,r4
        0x0800059a:    4639        9F      MOV      r1,r7
        0x0800059c:    e8bd8df0    ....    POP      {r4-r8,r10,r11,pc}
        0x080005a0:    2000        .       MOVS     r0,#0
        0x080005a2:    4305        .C      ORRS     r5,r5,r0
        0x080005a4:    ea4676e0    F..v    ORR      r6,r6,r0,ASR #31
        0x080005a8:    432c        ,C      ORRS     r4,r4,r5
        0x080005aa:    4337        7C      ORRS     r7,r7,r6
        0x080005ac:    980a        ..      LDR      r0,[sp,#0x28]
        0x080005ae:    0563        c.      LSLS     r3,r4,#21
        0x080005b0:    0ae4        ..      LSRS     r4,r4,#11
        0x080005b2:    eba00008    ....    SUB      r0,r0,r8
        0x080005b6:    2200        ."      MOVS     r2,#0
        0x080005b8:    0afd        ..      LSRS     r5,r7,#11
        0x080005ba:    ea445447    D.GT    ORR      r4,r4,r7,LSL #21
        0x080005be:    300a        .0      ADDS     r0,r0,#0xa
        0x080005c0:    d502        ..      BPL      0x80005c8 ; _double_epilogue + 136
        0x080005c2:    2000        .       MOVS     r0,#0
        0x080005c4:    4601        .F      MOV      r1,r0
        0x080005c6:    e7e9        ..      B        0x800059c ; _double_epilogue + 92
        0x080005c8:    0501        ..      LSLS     r1,r0,#20
        0x080005ca:    1910        ..      ADDS     r0,r2,r4
        0x080005cc:    4169        iA      ADCS     r1,r1,r5
        0x080005ce:    e9dd4508    ...E    LDRD     r4,r5,[sp,#0x20]
        0x080005d2:    1900        ..      ADDS     r0,r0,r4
        0x080005d4:    4169        iA      ADCS     r1,r1,r5
        0x080005d6:    e8bd4df0    ...M    POP      {r4-r8,r10,r11,lr}
        0x080005da:    e7a2        ..      B        __I$use$fp ; 0x8000522
    .text
    __scatterload
    __scatterload_rt2
        0x080005dc:    4c06        .L      LDR      r4,[pc,#24] ; [0x80005f8] = 0x8003774
        0x080005de:    4d07        .M      LDR      r5,[pc,#28] ; [0x80005fc] = 0x8003794
        0x080005e0:    e006        ..      B        0x80005f0 ; __scatterload + 20
        0x080005e2:    68e0        .h      LDR      r0,[r4,#0xc]
        0x080005e4:    f0400301    @...    ORR      r3,r0,#1
        0x080005e8:    e8940007    ....    LDM      r4,{r0-r2}
        0x080005ec:    4798        .G      BLX      r3
        0x080005ee:    3410        .4      ADDS     r4,r4,#0x10
        0x080005f0:    42ac        .B      CMP      r4,r5
        0x080005f2:    d3f6        ..      BCC      0x80005e2 ; __scatterload + 6
        0x080005f4:    f7fffd7e    ..~.    BL       __main_after_scatterload ; 0x80000f4
    $d
        0x080005f8:    08003774    t7..    DCD    134231924
        0x080005fc:    08003794    .7..    DCD    134231956
    $t
    i.BSP_Init
    BSP_Init
        0x08000600:    b510        ..      PUSH     {r4,lr}
        0x08000602:    f001ff23    ..#.    BL       USART1_Config ; 0x800244c
        0x08000606:    f000fa6f    ..o.    BL       HeapInit ; 0x8000ae8
        0x0800060a:    f000fac7    ....    BL       LED_Device_Register ; 0x8000b9c
        0x0800060e:    bd10        ..      POP      {r4,pc}
    i.Backtrace
    Backtrace
        0x08000610:    e92d41f0    -..A    PUSH     {r4-r8,lr}
        0x08000614:    4604        .F      MOV      r4,r0
        0x08000616:    4856        VH      LDR      r0,[pc,#344] ; [0x8000770] = 0x20000034
        0x08000618:    6800        .h      LDR      r0,[r0,#0]
        0x0800061a:    eb000140    ..@.    ADD      r1,r0,r0,LSL #1
        0x0800061e:    eb0100c0    ....    ADD      r0,r1,r0,LSL #3
        0x08000622:    4954        TI      LDR      r1,[pc,#336] ; [0x8000774] = 0x200000bc
        0x08000624:    eb010080    ....    ADD      r0,r1,r0,LSL #2
        0x08000628:    6980        .i      LDR      r0,[r0,#0x18]
        0x0800062a:    f1a00618    ....    SUB      r6,r0,#0x18
        0x0800062e:    a052        R.      ADR      r0,{pc}+0x14a ; 0x8000778
        0x08000630:    f002fbde    ....    BL       mini_printf ; 0x8002df0
        0x08000634:    484e        NH      LDR      r0,[pc,#312] ; [0x8000770] = 0x20000034
        0x08000636:    6800        .h      LDR      r0,[r0,#0]
        0x08000638:    eb000240    ..@.    ADD      r2,r0,r0,LSL #1
        0x0800063c:    eb0200c0    ....    ADD      r0,r2,r0,LSL #3
        0x08000640:    4a4c        LJ      LDR      r2,[pc,#304] ; [0x8000774] = 0x200000bc
        0x08000642:    eb020080    ....    ADD      r0,r2,r0,LSL #2
        0x08000646:    6841        Ah      LDR      r1,[r0,#4]
        0x08000648:    a058        X.      ADR      r0,{pc}+0x164 ; 0x80007ac
        0x0800064a:    f002fbd1    ....    BL       mini_printf ; 0x8002df0
        0x0800064e:    4848        HH      LDR      r0,[pc,#288] ; [0x8000770] = 0x20000034
        0x08000650:    6800        .h      LDR      r0,[r0,#0]
        0x08000652:    eb000240    ..@.    ADD      r2,r0,r0,LSL #1
        0x08000656:    eb0200c0    ....    ADD      r0,r2,r0,LSL #3
        0x0800065a:    4a46        FJ      LDR      r2,[pc,#280] ; [0x8000774] = 0x200000bc
        0x0800065c:    eb020080    ....    ADD      r0,r2,r0,LSL #2
        0x08000660:    8b81        ..      LDRH     r1,[r0,#0x1c]
        0x08000662:    a059        Y.      ADR      r0,{pc}+0x166 ; 0x80007c8
        0x08000664:    f002fbc4    ....    BL       mini_printf ; 0x8002df0
        0x08000668:    495f        _I      LDR      r1,[pc,#380] ; [0x80007e8] = 0xabcdef5a
        0x0800066a:    6830        0h      LDR      r0,[r6,#0]
        0x0800066c:    4288        .B      CMP      r0,r1
        0x0800066e:    d002        ..      BEQ      0x8000676 ; Backtrace + 102
        0x08000670:    a05e        ^.      ADR      r0,{pc}+0x17c ; 0x80007ec
        0x08000672:    f002fbbd    ....    BL       mini_printf ; 0x8002df0
        0x08000676:    a064        d.      ADR      r0,{pc}+0x192 ; 0x8000808
        0x08000678:    f002fbba    ....    BL       mini_printf ; 0x8002df0
        0x0800067c:    6821        !h      LDR      r1,[r4,#0]
        0x0800067e:    a06f        o.      ADR      r0,{pc}+0x1be ; 0x800083c
        0x08000680:    f002fbb6    ....    BL       mini_printf ; 0x8002df0
        0x08000684:    6861        ah      LDR      r1,[r4,#4]
        0x08000686:    a070        p.      ADR      r0,{pc}+0x1c2 ; 0x8000848
        0x08000688:    f002fbb2    ....    BL       mini_printf ; 0x8002df0
        0x0800068c:    68a1        .h      LDR      r1,[r4,#8]
        0x0800068e:    a071        q.      ADR      r0,{pc}+0x1c6 ; 0x8000854
        0x08000690:    f002fbae    ....    BL       mini_printf ; 0x8002df0
        0x08000694:    68e1        .h      LDR      r1,[r4,#0xc]
        0x08000696:    a072        r.      ADR      r0,{pc}+0x1ca ; 0x8000860
        0x08000698:    f002fbaa    ....    BL       mini_printf ; 0x8002df0
        0x0800069c:    6921        !i      LDR      r1,[r4,#0x10]
        0x0800069e:    a073        s.      ADR      r0,{pc}+0x1ce ; 0x800086c
        0x080006a0:    f002fba6    ....    BL       mini_printf ; 0x8002df0
        0x080006a4:    6961        ai      LDR      r1,[r4,#0x14]
        0x080006a6:    a074        t.      ADR      r0,{pc}+0x1d2 ; 0x8000878
        0x080006a8:    f002fba2    ....    BL       mini_printf ; 0x8002df0
        0x080006ac:    69a1        .i      LDR      r1,[r4,#0x18]
        0x080006ae:    a075        u.      ADR      r0,{pc}+0x1d6 ; 0x8000884
        0x080006b0:    f002fb9e    ....    BL       mini_printf ; 0x8002df0
        0x080006b4:    69e1        .i      LDR      r1,[r4,#0x1c]
        0x080006b6:    a076        v.      ADR      r0,{pc}+0x1da ; 0x8000890
        0x080006b8:    f002fb9a    ....    BL       mini_printf ; 0x8002df0
        0x080006bc:    4621        !F      MOV      r1,r4
        0x080006be:    a077        w.      ADR      r0,{pc}+0x1de ; 0x800089c
        0x080006c0:    f002fb96    ....    BL       mini_printf ; 0x8002df0
        0x080006c4:    f7fffd22    ..".    BL       __get_MSP ; 0x800010c
        0x080006c8:    4607        .F      MOV      r7,r0
        0x080006ca:    4639        9F      MOV      r1,r7
        0x080006cc:    a078        x.      ADR      r0,{pc}+0x1e4 ; 0x80008b0
        0x080006ce:    f002fb8f    ....    BL       mini_printf ; 0x8002df0
        0x080006d2:    bf00        ..      NOP      
        0x080006d4:    f3ef8014    ....    MRS      r0,CONTROL
        0x080006d8:    4607        .F      MOV      r7,r0
        0x080006da:    4639        9F      MOV      r1,r7
        0x080006dc:    a079        y.      ADR      r0,{pc}+0x1e8 ; 0x80008c4
        0x080006de:    f002fb87    ....    BL       mini_printf ; 0x8002df0
        0x080006e2:    bf00        ..      NOP      
        0x080006e4:    f3ef8011    ....    MRS      r0,BASEPRI
        0x080006e8:    4607        .F      MOV      r7,r0
        0x080006ea:    4639        9F      MOV      r1,r7
        0x080006ec:    a07a        z.      ADR      r0,{pc}+0x1ec ; 0x80008d8
        0x080006ee:    f002fb7f    ....    BL       mini_printf ; 0x8002df0
        0x080006f2:    bf00        ..      NOP      
        0x080006f4:    f3ef8010    ....    MRS      r0,PRIMASK
        0x080006f8:    4607        .F      MOV      r7,r0
        0x080006fa:    4639        9F      MOV      r1,r7
        0x080006fc:    a07b        {.      ADR      r0,{pc}+0x1f0 ; 0x80008ec
        0x080006fe:    f002fb77    ..w.    BL       mini_printf ; 0x8002df0
        0x08000702:    bf00        ..      NOP      
        0x08000704:    f3ef8013    ....    MRS      r0,FAULTMASK
        0x08000708:    4607        .F      MOV      r7,r0
        0x0800070a:    4639        9F      MOV      r1,r7
        0x0800070c:    a07c        |.      ADR      r0,{pc}+0x1f4 ; 0x8000900
        0x0800070e:    f002fb6f    ..o.    BL       mini_printf ; 0x8002df0
        0x08000712:    a080        ..      ADR      r0,{pc}+0x202 ; 0x8000914
        0x08000714:    f002fb6c    ..l.    BL       mini_printf ; 0x8002df0
        0x08000718:    2500        .%      MOVS     r5,#0
        0x0800071a:    e01b        ..      B        0x8000754 ; Backtrace + 324
        0x0800071c:    4814        .H      LDR      r0,[pc,#80] ; [0x8000770] = 0x20000034
        0x0800071e:    6800        .h      LDR      r0,[r0,#0]
        0x08000720:    eb000340    ..@.    ADD      r3,r0,r0,LSL #1
        0x08000724:    eb0300c0    ....    ADD      r0,r3,r0,LSL #3
        0x08000728:    4b12        .K      LDR      r3,[pc,#72] ; [0x8000774] = 0x200000bc
        0x0800072a:    eb030080    ....    ADD      r0,r3,r0,LSL #2
        0x0800072e:    6980        .i      LDR      r0,[r0,#0x18]
        0x08000730:    f8502025    P.%     LDR      r2,[r0,r5,LSL #2]
        0x08000734:    480e        .H      LDR      r0,[pc,#56] ; [0x8000770] = 0x20000034
        0x08000736:    6800        .h      LDR      r0,[r0,#0]
        0x08000738:    eb000340    ..@.    ADD      r3,r0,r0,LSL #1
        0x0800073c:    eb0300c0    ....    ADD      r0,r3,r0,LSL #3
        0x08000740:    4b0c        .K      LDR      r3,[pc,#48] ; [0x8000774] = 0x200000bc
        0x08000742:    eb030080    ....    ADD      r0,r3,r0,LSL #2
        0x08000746:    6980        .i      LDR      r0,[r0,#0x18]
        0x08000748:    eb000185    ....    ADD      r1,r0,r5,LSL #2
        0x0800074c:    a07b        {.      ADR      r0,{pc}+0x1f0 ; 0x800093c
        0x0800074e:    f002fb4f    ..O.    BL       mini_printf ; 0x8002df0
        0x08000752:    1c6d        m.      ADDS     r5,r5,#1
        0x08000754:    4806        .H      LDR      r0,[pc,#24] ; [0x8000770] = 0x20000034
        0x08000756:    6800        .h      LDR      r0,[r0,#0]
        0x08000758:    eb000140    ..@.    ADD      r1,r0,r0,LSL #1
        0x0800075c:    eb0100c0    ....    ADD      r0,r1,r0,LSL #3
        0x08000760:    4904        .I      LDR      r1,[pc,#16] ; [0x8000774] = 0x200000bc
        0x08000762:    eb010080    ....    ADD      r0,r1,r0,LSL #2
        0x08000766:    8b80        ..      LDRH     r0,[r0,#0x1c]
        0x08000768:    42a8        .B      CMP      r0,r5
        0x0800076a:    d8d7        ..      BHI      0x800071c ; Backtrace + 268
        0x0800076c:    e8bd81f0    ....    POP      {r4-r8,pc}
    $d
        0x08000770:    20000034    4..     DCD    536870964
        0x08000774:    200000bc    ...     DCD    536871100
        0x08000778:    3d3d3d3d    ====    DCD    1027423549
        0x0800077c:    3d3d3d3d    ====    DCD    1027423549
        0x08000780:    3d3d3d3d    ====    DCD    1027423549
        0x08000784:    696e696d    mini    DCD    1768843629
        0x08000788:    534f5452    RTOS    DCD    1397707858
        0x0800078c:    73617420     tas    DCD    1935766560
        0x08000790:    6e69206b    k in    DCD    1852383339
        0x08000794:    6d726f66    form    DCD    1836216166
        0x08000798:    6f697461    atio    DCD    1869182049
        0x0800079c:    3d3d3d6e    n===    DCD    1027423598
        0x080007a0:    3d3d3d3d    ====    DCD    1027423549
        0x080007a4:    3d3d3d3d    ====    DCD    1027423549
        0x080007a8:    000a0d3d    =...    DCD    658749
        0x080007ac:    72727543    Curr    DCD    1920103747
        0x080007b0:    20746e65    ent     DCD    544501349
        0x080007b4:    6b736174    task    DCD    1802723700
        0x080007b8:    6d616e20     nam    DCD    1835101728
        0x080007bc:    73692065    e is    DCD    1936269413
        0x080007c0:    0d732520     %s.    DCD    225649952
        0x080007c4:    0000000a    ....    DCD    10
        0x080007c8:    6b736174    task    DCD    1802723700
        0x080007cc:    61747320     sta    DCD    1635021600
        0x080007d0:    73206b63    ck s    DCD    1931504483
        0x080007d4:    20657a69    ize     DCD    543521385
        0x080007d8:    25207369    is %    DCD    622883689
        0x080007dc:    6f772064    d wo    DCD    1870078052
        0x080007e0:    0d736472    rds.    DCD    225666162
        0x080007e4:    0000000a    ....    DCD    10
        0x080007e8:    abcdef5a    Z...    DCD    2882400090
        0x080007ec:    6b736174    task    DCD    1802723700
        0x080007f0:    61747320     sta    DCD    1635021600
        0x080007f4:    69206b63    ck i    DCD    1763732323
        0x080007f8:    766f2073    s ov    DCD    1986994291
        0x080007fc:    6c667265    erfl    DCD    1818653285
        0x08000800:    0a0d776f    ow..    DCD    168654703
        0x08000804:    00000000    ....    DCD    0
        0x08000808:    3d3d3d3d    ====    DCD    1027423549
        0x0800080c:    3d3d3d3d    ====    DCD    1027423549
        0x08000810:    434d3d3d    ==MC    DCD    1129135421
        0x08000814:    6f632055    U co    DCD    1868767317
        0x08000818:    72206572    re r    DCD    1914725746
        0x0800081c:    73696765    egis    DCD    1936287589
        0x08000820:    73726574    ters    DCD    1936876916
        0x08000824:    666e6920     inf    DCD    1718511904
        0x08000828:    616d726f    orma    DCD    1634562671
        0x0800082c:    6e6f6974    tion    DCD    1852795252
        0x08000830:    3d3d3d3d    ====    DCD    1027423549
        0x08000834:    0d3d3d3d    ===.    DCD    222117181
        0x08000838:    0000000a    ....    DCD    10
        0x0800083c:    3a203052    R0 :    DCD    975188050
        0x08000840:    25783020     0x%    DCD    628633632
        0x08000844:    000a0d58    X...    DCD    658776
        0x08000848:    3a203152    R1 :    DCD    975188306
        0x0800084c:    25783020     0x%    DCD    628633632
        0x08000850:    000a0d58    X...    DCD    658776
        0x08000854:    3a203252    R2 :    DCD    975188562
        0x08000858:    25783020     0x%    DCD    628633632
        0x0800085c:    000a0d58    X...    DCD    658776
        0x08000860:    3a203352    R3 :    DCD    975188818
        0x08000864:    25783020     0x%    DCD    628633632
        0x08000868:    000a0d58    X...    DCD    658776
        0x0800086c:    3a323152    R12:    DCD    976367954
        0x08000870:    25783020     0x%    DCD    628633632
        0x08000874:    000a0d58    X...    DCD    658776
        0x08000878:    3a20524c    LR :    DCD    975196748
        0x0800087c:    25783020     0x%    DCD    628633632
        0x08000880:    000a0d58    X...    DCD    658776
        0x08000884:    3a204350    PC :    DCD    975192912
        0x08000888:    25783020     0x%    DCD    628633632
        0x0800088c:    000a0d58    X...    DCD    658776
        0x08000890:    3a525350    PSR:    DCD    978473808
        0x08000894:    25783020     0x%    DCD    628633632
        0x08000898:    000a0d58    X...    DCD    658776
        0x0800089c:    20505350    PSP     DCD    542135120
        0x080008a0:    20202020            DCD    538976288
        0x080008a4:    30203a20     : 0    DCD    807418400
        0x080008a8:    0d582578    x%X.    DCD    223880568
        0x080008ac:    0000000a    ....    DCD    10
        0x080008b0:    2050534d    MSP     DCD    542135117
        0x080008b4:    20202020            DCD    538976288
        0x080008b8:    30203a20     : 0    DCD    807418400
        0x080008bc:    0d582578    x%X.    DCD    223880568
        0x080008c0:    0000000a    ....    DCD    10
        0x080008c4:    544e4f43    CONT    DCD    1414418243
        0x080008c8:    204c4f52    ROL     DCD    541871954
        0x080008cc:    30203a20     : 0    DCD    807418400
        0x080008d0:    0d582578    x%X.    DCD    223880568
        0x080008d4:    0000000a    ....    DCD    10
        0x080008d8:    45534142    BASE    DCD    1163084098
        0x080008dc:    20495250    PRI     DCD    541676112
        0x080008e0:    30203a20     : 0    DCD    807418400
        0x080008e4:    0d582578    x%X.    DCD    223880568
        0x080008e8:    0000000a    ....    DCD    10
        0x080008ec:    4d495250    PRIM    DCD    1296650832
        0x080008f0:    204b5341    ASK     DCD    541807425
        0x080008f4:    30203a20     : 0    DCD    807418400
        0x080008f8:    0d582578    x%X.    DCD    223880568
        0x080008fc:    0000000a    ....    DCD    10
        0x08000900:    4c554146    FAUL    DCD    1280655686
        0x08000904:    53414d54    TMAS    DCD    1396788564
        0x08000908:    30203a4b    K: 0    DCD    807418443
        0x0800090c:    0d582578    x%X.    DCD    223880568
        0x08000910:    0000000a    ....    DCD    10
        0x08000914:    3d3d3d3d    ====    DCD    1027423549
        0x08000918:    3d3d3d3d    ====    DCD    1027423549
        0x0800091c:    3d3d3d3d    ====    DCD    1027423549
        0x08000920:    7361743d    =tas    DCD    1935766589
        0x08000924:    7473206b    k st    DCD    1953701995
        0x08000928:    3d6b6361    ack=    DCD    1030447969
        0x0800092c:    3d3d3d3d    ====    DCD    1027423549
        0x08000930:    3d3d3d3d    ====    DCD    1027423549
        0x08000934:    3d3d3d3d    ====    DCD    1027423549
        0x08000938:    000a0d3d    =...    DCD    658749
        0x0800093c:    72646461    addr    DCD    1919181921
        0x08000940:    2578303a    :0x%    DCD    628633658
        0x08000944:    64202c58    X, d    DCD    1679830104
        0x08000948:    3a617461    ata:    DCD    979465313
        0x0800094c:    58257830    0x%X    DCD    1478850608
        0x08000950:    00000a0d    ....    DCD    2573
    $t
    i.BusFault_Handler
    BusFault_Handler
        0x08000954:    bf00        ..      NOP      
        0x08000956:    e7fe        ..      B        0x8000956 ; BusFault_Handler + 2
    i.Creat_queue
    Creat_queue
        0x08000958:    b510        ..      PUSH     {r4,lr}
        0x0800095a:    2010        .       MOVS     r0,#0x10
        0x0800095c:    f002f9ec    ....    BL       mini_malloc ; 0x8002d38
        0x08000960:    4604        .F      MOV      r4,r0
        0x08000962:    b144        D.      CBZ      r4,0x8000976 ; Creat_queue + 30
        0x08000964:    2000        .       MOVS     r0,#0
        0x08000966:    6020         `      STR      r0,[r4,#0]
        0x08000968:    6060        ``      STR      r0,[r4,#4]
        0x0800096a:    2205        ."      MOVS     r2,#5
        0x0800096c:    2100        .!      MOVS     r1,#0
        0x0800096e:    f1040008    ....    ADD      r0,r4,#8
        0x08000972:    f002fa2b    ..+.    BL       mini_memset ; 0x8002dcc
        0x08000976:    4620         F      MOV      r0,r4
        0x08000978:    bd10        ..      POP      {r4,pc}
    i.DebugMon_Handler
    DebugMon_Handler
        0x0800097a:    4770        pG      BX       lr
    i.Disable_Interrupt
    Disable_Interrupt
        0x0800097c:    b672        r.      CPSID    i
        0x0800097e:    4770        pG      BX       lr
    i.Enable_Interrupt
    Enable_Interrupt
        0x08000980:    b662        b.      CPSIE    i
        0x08000982:    4770        pG      BX       lr
    i.Enter_Critical
    Enter_Critical
        0x08000984:    bf00        ..      NOP      
        0x08000986:    f3ef8010    ....    MRS      r0,PRIMASK
        0x0800098a:    4601        .F      MOV      r1,r0
        0x0800098c:    2001        .       MOVS     r0,#1
        0x0800098e:    f3808810    ....    MSR      PRIMASK,r0
        0x08000992:    bf00        ..      NOP      
        0x08000994:    4608        .F      MOV      r0,r1
        0x08000996:    4770        pG      BX       lr
    i.Exit_Critical
    Exit_Critical
        0x08000998:    bf00        ..      NOP      
        0x0800099a:    f3808810    ....    MSR      PRIMASK,r0
        0x0800099e:    bf00        ..      NOP      
        0x080009a0:    4770        pG      BX       lr
    i.GPIO_Init
    GPIO_Init
        0x080009a2:    e92d41f0    -..A    PUSH     {r4-r8,lr}
        0x080009a6:    4602        .F      MOV      r2,r0
        0x080009a8:    2500        .%      MOVS     r5,#0
        0x080009aa:    2600        .&      MOVS     r6,#0
        0x080009ac:    2000        .       MOVS     r0,#0
        0x080009ae:    2300        .#      MOVS     r3,#0
        0x080009b0:    2400        .$      MOVS     r4,#0
        0x080009b2:    2700        .'      MOVS     r7,#0
        0x080009b4:    f891c003    ....    LDRB     r12,[r1,#3]
        0x080009b8:    f00c050f    ....    AND      r5,r12,#0xf
        0x080009bc:    f891c003    ....    LDRB     r12,[r1,#3]
        0x080009c0:    f00c0c10    ....    AND      r12,r12,#0x10
        0x080009c4:    f1bc0f00    ....    CMP      r12,#0
        0x080009c8:    d003        ..      BEQ      0x80009d2 ; GPIO_Init + 48
        0x080009ca:    f891c002    ....    LDRB     r12,[r1,#2]
        0x080009ce:    ea4c0505    L...    ORR      r5,r12,r5
        0x080009d2:    f891c000    ....    LDRB     r12,[r1,#0]
        0x080009d6:    f1bc0f00    ....    CMP      r12,#0
        0x080009da:    d031        1.      BEQ      0x8000a40 ; GPIO_Init + 158
        0x080009dc:    6814        .h      LDR      r4,[r2,#0]
        0x080009de:    2000        .       MOVS     r0,#0
        0x080009e0:    e02b        +.      B        0x8000a3a ; GPIO_Init + 152
        0x080009e2:    f04f0c01    O...    MOV      r12,#1
        0x080009e6:    fa0cf300    ....    LSL      r3,r12,r0
        0x080009ea:    f8b1c000    ....    LDRH     r12,[r1,#0]
        0x080009ee:    ea0c0603    ....    AND      r6,r12,r3
        0x080009f2:    429e        .B      CMP      r6,r3
        0x080009f4:    d120         .      BNE      0x8000a38 ; GPIO_Init + 150
        0x080009f6:    0083        ..      LSLS     r3,r0,#2
        0x080009f8:    f04f0c0f    O...    MOV      r12,#0xf
        0x080009fc:    fa0cf703    ....    LSL      r7,r12,r3
        0x08000a00:    43bc        .C      BICS     r4,r4,r7
        0x08000a02:    fa05fc03    ....    LSL      r12,r5,r3
        0x08000a06:    ea4c0404    L...    ORR      r4,r12,r4
        0x08000a0a:    f891c003    ....    LDRB     r12,[r1,#3]
        0x08000a0e:    f1bc0f28    ..(.    CMP      r12,#0x28
        0x08000a12:    d106        ..      BNE      0x8000a22 ; GPIO_Init + 128
        0x08000a14:    f04f0c01    O...    MOV      r12,#1
        0x08000a18:    fa0cfc00    ....    LSL      r12,r12,r0
        0x08000a1c:    f8c2c014    ....    STR      r12,[r2,#0x14]
        0x08000a20:    e00a        ..      B        0x8000a38 ; GPIO_Init + 150
        0x08000a22:    f891c003    ....    LDRB     r12,[r1,#3]
        0x08000a26:    f1bc0f48    ..H.    CMP      r12,#0x48
        0x08000a2a:    d105        ..      BNE      0x8000a38 ; GPIO_Init + 150
        0x08000a2c:    f04f0c01    O...    MOV      r12,#1
        0x08000a30:    fa0cfc00    ....    LSL      r12,r12,r0
        0x08000a34:    f8c2c010    ....    STR      r12,[r2,#0x10]
        0x08000a38:    1c40        @.      ADDS     r0,r0,#1
        0x08000a3a:    2808        .(      CMP      r0,#8
        0x08000a3c:    d3d1        ..      BCC      0x80009e2 ; GPIO_Init + 64
        0x08000a3e:    6014        .`      STR      r4,[r2,#0]
        0x08000a40:    f8b1c000    ....    LDRH     r12,[r1,#0]
        0x08000a44:    f1bc0fff    ....    CMP      r12,#0xff
        0x08000a48:    dd34        4.      BLE      0x8000ab4 ; GPIO_Init + 274
        0x08000a4a:    6854        Th      LDR      r4,[r2,#4]
        0x08000a4c:    2000        .       MOVS     r0,#0
        0x08000a4e:    e02e        ..      B        0x8000aae ; GPIO_Init + 268
        0x08000a50:    f1000c08    ....    ADD      r12,r0,#8
        0x08000a54:    f04f0801    O...    MOV      r8,#1
        0x08000a58:    fa08f30c    ....    LSL      r3,r8,r12
        0x08000a5c:    f8b1c000    ....    LDRH     r12,[r1,#0]
        0x08000a60:    ea0c0603    ....    AND      r6,r12,r3
        0x08000a64:    429e        .B      CMP      r6,r3
        0x08000a66:    d121        !.      BNE      0x8000aac ; GPIO_Init + 266
        0x08000a68:    0083        ..      LSLS     r3,r0,#2
        0x08000a6a:    f04f0c0f    O...    MOV      r12,#0xf
        0x08000a6e:    fa0cf703    ....    LSL      r7,r12,r3
        0x08000a72:    43bc        .C      BICS     r4,r4,r7
        0x08000a74:    fa05fc03    ....    LSL      r12,r5,r3
        0x08000a78:    ea4c0404    L...    ORR      r4,r12,r4
        0x08000a7c:    f891c003    ....    LDRB     r12,[r1,#3]
        0x08000a80:    f1bc0f28    ..(.    CMP      r12,#0x28
        0x08000a84:    d105        ..      BNE      0x8000a92 ; GPIO_Init + 240
        0x08000a86:    f1000c08    ....    ADD      r12,r0,#8
        0x08000a8a:    fa08f80c    ....    LSL      r8,r8,r12
        0x08000a8e:    f8c28014    ....    STR      r8,[r2,#0x14]
        0x08000a92:    f891c003    ....    LDRB     r12,[r1,#3]
        0x08000a96:    f1bc0f48    ..H.    CMP      r12,#0x48
        0x08000a9a:    d107        ..      BNE      0x8000aac ; GPIO_Init + 266
        0x08000a9c:    f1000c08    ....    ADD      r12,r0,#8
        0x08000aa0:    f04f0801    O...    MOV      r8,#1
        0x08000aa4:    fa08f80c    ....    LSL      r8,r8,r12
        0x08000aa8:    f8c28010    ....    STR      r8,[r2,#0x10]
        0x08000aac:    1c40        @.      ADDS     r0,r0,#1
        0x08000aae:    2808        .(      CMP      r0,#8
        0x08000ab0:    d3ce        ..      BCC      0x8000a50 ; GPIO_Init + 174
        0x08000ab2:    6054        T`      STR      r4,[r2,#4]
        0x08000ab4:    e8bd81f0    ....    POP      {r4-r8,pc}
    i.GPIO_ReadInputDataBit
    GPIO_ReadInputDataBit
        0x08000ab8:    4602        .F      MOV      r2,r0
        0x08000aba:    2000        .       MOVS     r0,#0
        0x08000abc:    6893        .h      LDR      r3,[r2,#8]
        0x08000abe:    400b        .@      ANDS     r3,r3,r1
        0x08000ac0:    b10b        ..      CBZ      r3,0x8000ac6 ; GPIO_ReadInputDataBit + 14
        0x08000ac2:    2001        .       MOVS     r0,#1
        0x08000ac4:    e000        ..      B        0x8000ac8 ; GPIO_ReadInputDataBit + 16
        0x08000ac6:    2000        .       MOVS     r0,#0
        0x08000ac8:    4770        pG      BX       lr
    i.GPIO_SetBits
    GPIO_SetBits
        0x08000aca:    6101        .a      STR      r1,[r0,#0x10]
        0x08000acc:    4770        pG      BX       lr
    i.GPIO_WriteBit
    GPIO_WriteBit
        0x08000ace:    b10a        ..      CBZ      r2,0x8000ad4 ; GPIO_WriteBit + 6
        0x08000ad0:    6101        .a      STR      r1,[r0,#0x10]
        0x08000ad2:    e000        ..      B        0x8000ad6 ; GPIO_WriteBit + 8
        0x08000ad4:    6141        Aa      STR      r1,[r0,#0x14]
        0x08000ad6:    4770        pG      BX       lr
    i.HardFault_Handler
    HardFault_Handler
        0x08000ad8:    f7fffb12    ....    BL       __get_PSP ; 0x8000100
        0x08000adc:    4604        .F      MOV      r4,r0
        0x08000ade:    f7fffd97    ....    BL       Backtrace ; 0x8000610
        0x08000ae2:    bf00        ..      NOP      
        0x08000ae4:    e7fe        ..      B        0x8000ae4 ; HardFault_Handler + 12
        0x08000ae6:    0000        ..      MOVS     r0,r0
    i.HeapInit
    HeapInit
        0x08000ae8:    b510        ..      PUSH     {r4,lr}
        0x08000aea:    4813        .H      LDR      r0,[pc,#76] ; [0x8000b38] = 0x20000207
        0x08000aec:    f0200407     ...    BIC      r4,r0,#7
        0x08000af0:    f44f5280    O..R    MOV      r2,#0x1000
        0x08000af4:    2100        .!      MOVS     r1,#0
        0x08000af6:    1fc0        ..      SUBS     r0,r0,#7
        0x08000af8:    f002f968    ..h.    BL       mini_memset ; 0x8002dcc
        0x08000afc:    f5c45080    ...P    RSB      r0,r4,#0x1000
        0x08000b00:    490d        .I      LDR      r1,[pc,#52] ; [0x8000b38] = 0x20000207
        0x08000b02:    1fc9        ..      SUBS     r1,r1,#7
        0x08000b04:    4408        .D      ADD      r0,r0,r1
        0x08000b06:    3818        .8      SUBS     r0,r0,#0x18
        0x08000b08:    60a0        .`      STR      r0,[r4,#8]
        0x08000b0a:    f06f4000    o..@    MVN      r0,#0x80000000
        0x08000b0e:    43a0        .C      BICS     r0,r0,r4
        0x08000b10:    6861        ah      LDR      r1,[r4,#4]
        0x08000b12:    f360011e    `...    BFI      r1,r0,#0,#31
        0x08000b16:    6061        a`      STR      r1,[r4,#4]
        0x08000b18:    6860        `h      LDR      r0,[r4,#4]
        0x08000b1a:    f0204000     ..@    BIC      r0,r0,#0x80000000
        0x08000b1e:    6060        ``      STR      r0,[r4,#4]
        0x08000b20:    4806        .H      LDR      r0,[pc,#24] ; [0x8000b3c] = 0xabcdef5a
        0x08000b22:    6020         `      STR      r0,[r4,#0]
        0x08000b24:    2000        .       MOVS     r0,#0
        0x08000b26:    60e0        .`      STR      r0,[r4,#0xc]
        0x08000b28:    6120         a      STR      r0,[r4,#0x10]
        0x08000b2a:    6160        `a      STR      r0,[r4,#0x14]
        0x08000b2c:    4804        .H      LDR      r0,[pc,#16] ; [0x8000b40] = 0x2000004c
        0x08000b2e:    6004        .`      STR      r4,[r0,#0]
        0x08000b30:    4804        .H      LDR      r0,[pc,#16] ; [0x8000b44] = 0x20000050
        0x08000b32:    6004        .`      STR      r4,[r0,#0]
        0x08000b34:    bd10        ..      POP      {r4,pc}
    $d
        0x08000b36:    0000        ..      DCW    0
        0x08000b38:    20000207    ...     DCD    536871431
        0x08000b3c:    abcdef5a    Z...    DCD    2882400090
        0x08000b40:    2000004c    L..     DCD    536870988
        0x08000b44:    20000050    P..     DCD    536870992
    $t
    i.Idle_Task_Hook
    Idle_Task_Hook
        0x08000b48:    4770        pG      BX       lr
    i.Idle_task
    Idle_task
        0x08000b4a:    e001        ..      B        0x8000b50 ; Idle_task + 6
        0x08000b4c:    f7fffffc    ....    BL       Idle_Task_Hook ; 0x8000b48
        0x08000b50:    e7fc        ..      B        0x8000b4c ; Idle_task + 2
        0x08000b52:    0000        ..      MOVS     r0,r0
    i.LED_Control
    LED_Control
        0x08000b54:    b538        8.      PUSH     {r3-r5,lr}
        0x08000b56:    4604        .F      MOV      r4,r0
        0x08000b58:    460d        .F      MOV      r5,r1
        0x08000b5a:    b2e0        ..      UXTB     r0,r4
        0x08000b5c:    b110        ..      CBZ      r0,0x8000b64 ; LED_Control + 16
        0x08000b5e:    2801        .(      CMP      r0,#1
        0x08000b60:    d108        ..      BNE      0x8000b74 ; LED_Control + 32
        0x08000b62:    e003        ..      B        0x8000b6c ; LED_Control + 24
        0x08000b64:    2010        .       MOVS     r0,#0x10
        0x08000b66:    f88d0003    ....    STRB     r0,[sp,#3]
        0x08000b6a:    e007        ..      B        0x8000b7c ; LED_Control + 40
        0x08000b6c:    2004        .       MOVS     r0,#4
        0x08000b6e:    f88d0003    ....    STRB     r0,[sp,#3]
        0x08000b72:    e003        ..      B        0x8000b7c ; LED_Control + 40
        0x08000b74:    2010        .       MOVS     r0,#0x10
        0x08000b76:    f88d0003    ....    STRB     r0,[sp,#3]
        0x08000b7a:    bf00        ..      NOP      
        0x08000b7c:    bf00        ..      NOP      
        0x08000b7e:    f44f5080    O..P    MOV      r0,#0x1000
        0x08000b82:    f8ad0000    ....    STRH     r0,[sp,#0]
        0x08000b86:    2003        .       MOVS     r0,#3
        0x08000b88:    f88d0002    ....    STRB     r0,[sp,#2]
        0x08000b8c:    4669        iF      MOV      r1,sp
        0x08000b8e:    4802        .H      LDR      r0,[pc,#8] ; [0x8000b98] = 0x40010c00
        0x08000b90:    f7ffff07    ....    BL       GPIO_Init ; 0x80009a2
        0x08000b94:    bd38        8.      POP      {r3-r5,pc}
    $d
        0x08000b96:    0000        ..      DCW    0
        0x08000b98:    40010c00    ...@    DCD    1073810432
    $t
    i.LED_Device_Register
    LED_Device_Register
        0x08000b9c:    b510        ..      PUSH     {r4,lr}
        0x08000b9e:    a009        ..      ADR      r0,{pc}+0x26 ; 0x8000bc4
        0x08000ba0:    4909        .I      LDR      r1,[pc,#36] ; [0x8000bc8] = 0x20000090
        0x08000ba2:    6008        .`      STR      r0,[r1,#0]
        0x08000ba4:    4809        .H      LDR      r0,[pc,#36] ; [0x8000bcc] = 0x8000bdd
        0x08000ba6:    6088        .`      STR      r0,[r1,#8]
        0x08000ba8:    2000        .       MOVS     r0,#0
        0x08000baa:    60c8        .`      STR      r0,[r1,#0xc]
        0x08000bac:    6108        .a      STR      r0,[r1,#0x10]
        0x08000bae:    4808        .H      LDR      r0,[pc,#32] ; [0x8000bd0] = 0x8000c15
        0x08000bb0:    6148        Ha      STR      r0,[r1,#0x14]
        0x08000bb2:    4808        .H      LDR      r0,[pc,#32] ; [0x8000bd4] = 0x8000c31
        0x08000bb4:    6188        .a      STR      r0,[r1,#0x18]
        0x08000bb6:    4808        .H      LDR      r0,[pc,#32] ; [0x8000bd8] = 0x8000b55
        0x08000bb8:    61c8        .a      STR      r0,[r1,#0x1c]
        0x08000bba:    4608        .F      MOV      r0,r1
        0x08000bbc:    f001ff0c    ....    BL       device_register ; 0x80029d8
        0x08000bc0:    bd10        ..      POP      {r4,pc}
    $d
        0x08000bc2:    0000        ..      DCW    0
        0x08000bc4:    0044454c    LED.    DCD    4474188
        0x08000bc8:    20000090    ...     DCD    536871056
        0x08000bcc:    08000bdd    ....    DCD    134220765
        0x08000bd0:    08000c15    ....    DCD    134220821
        0x08000bd4:    08000c31    1...    DCD    134220849
        0x08000bd8:    08000b55    U...    DCD    134220629
    $t
    i.LED_Init
    LED_Init
        0x08000bdc:    b508        ..      PUSH     {r3,lr}
        0x08000bde:    2101        .!      MOVS     r1,#1
        0x08000be0:    2008        .       MOVS     r0,#8
        0x08000be2:    f000fb21    ..!.    BL       RCC_APB2PeriphClockCmd ; 0x8001228
        0x08000be6:    f44f5080    O..P    MOV      r0,#0x1000
        0x08000bea:    f8ad0000    ....    STRH     r0,[sp,#0]
        0x08000bee:    2010        .       MOVS     r0,#0x10
        0x08000bf0:    f88d0003    ....    STRB     r0,[sp,#3]
        0x08000bf4:    2003        .       MOVS     r0,#3
        0x08000bf6:    f88d0002    ....    STRB     r0,[sp,#2]
        0x08000bfa:    4669        iF      MOV      r1,sp
        0x08000bfc:    4804        .H      LDR      r0,[pc,#16] ; [0x8000c10] = 0x40010c00
        0x08000bfe:    f7fffed0    ....    BL       GPIO_Init ; 0x80009a2
        0x08000c02:    f44f5180    O..Q    MOV      r1,#0x1000
        0x08000c06:    4802        .H      LDR      r0,[pc,#8] ; [0x8000c10] = 0x40010c00
        0x08000c08:    f7ffff5f    .._.    BL       GPIO_SetBits ; 0x8000aca
        0x08000c0c:    bd08        ..      POP      {r3,pc}
    $d
        0x08000c0e:    0000        ..      DCW    0
        0x08000c10:    40010c00    ...@    DCD    1073810432
    $t
    i.LED_Read
    LED_Read
        0x08000c14:    b570        p.      PUSH     {r4-r6,lr}
        0x08000c16:    4606        .F      MOV      r6,r0
        0x08000c18:    460c        .F      MOV      r4,r1
        0x08000c1a:    4615        .F      MOV      r5,r2
        0x08000c1c:    f44f5180    O..Q    MOV      r1,#0x1000
        0x08000c20:    4802        .H      LDR      r0,[pc,#8] ; [0x8000c2c] = 0x40010c00
        0x08000c22:    f7ffff49    ..I.    BL       GPIO_ReadInputDataBit ; 0x8000ab8
        0x08000c26:    7020         p      STRB     r0,[r4,#0]
        0x08000c28:    4628        (F      MOV      r0,r5
        0x08000c2a:    bd70        p.      POP      {r4-r6,pc}
    $d
        0x08000c2c:    40010c00    ...@    DCD    1073810432
    $t
    i.LED_Write
    LED_Write
        0x08000c30:    b570        p.      PUSH     {r4-r6,lr}
        0x08000c32:    4606        .F      MOV      r6,r0
        0x08000c34:    460c        .F      MOV      r4,r1
        0x08000c36:    4615        .F      MOV      r5,r2
        0x08000c38:    7822        "x      LDRB     r2,[r4,#0]
        0x08000c3a:    f44f5180    O..Q    MOV      r1,#0x1000
        0x08000c3e:    4802        .H      LDR      r0,[pc,#8] ; [0x8000c48] = 0x40010c00
        0x08000c40:    f7ffff45    ..E.    BL       GPIO_WriteBit ; 0x8000ace
        0x08000c44:    4628        (F      MOV      r0,r5
        0x08000c46:    bd70        p.      POP      {r4-r6,pc}
    $d
        0x08000c48:    40010c00    ...@    DCD    1073810432
    $t
    i.Launch_Task_Schedule
    Launch_Task_Schedule
        0x08000c4c:    4824        $H      LDR      r0,[pc,#144] ; [0x8000ce0] = 0x2000003c
        0x08000c4e:    7800        .x      LDRB     r0,[r0,#0]
        0x08000c50:    bbf0        ..      CBNZ     r0,0x8000cd0 ; Launch_Task_Schedule + 132
        0x08000c52:    4824        $H      LDR      r0,[pc,#144] ; [0x8000ce4] = 0x20000028
        0x08000c54:    6800        .h      LDR      r0,[r0,#0]
        0x08000c56:    6800        .h      LDR      r0,[r0,#0]
        0x08000c58:    8800        ..      LDRH     r0,[r0,#0]
        0x08000c5a:    4923        #I      LDR      r1,[pc,#140] ; [0x8000ce8] = 0x20000038
        0x08000c5c:    6008        .`      STR      r0,[r1,#0]
        0x08000c5e:    4823        #H      LDR      r0,[pc,#140] ; [0x8000cec] = 0x20000034
        0x08000c60:    6800        .h      LDR      r0,[r0,#0]
        0x08000c62:    6809        .h      LDR      r1,[r1,#0]
        0x08000c64:    4288        .B      CMP      r0,r1
        0x08000c66:    d03a        :.      BEQ      0x8000cde ; Launch_Task_Schedule + 146
        0x08000c68:    481f        .H      LDR      r0,[pc,#124] ; [0x8000ce8] = 0x20000038
        0x08000c6a:    6800        .h      LDR      r0,[r0,#0]
        0x08000c6c:    eb000140    ..@.    ADD      r1,r0,r0,LSL #1
        0x08000c70:    eb0100c0    ....    ADD      r0,r1,r0,LSL #3
        0x08000c74:    491e        .I      LDR      r1,[pc,#120] ; [0x8000cf0] = 0x200000bc
        0x08000c76:    f8510020    Q. .    LDR      r0,[r1,r0,LSL #2]
        0x08000c7a:    8800        ..      LDRH     r0,[r0,#0]
        0x08000c7c:    491d        .I      LDR      r1,[pc,#116] ; [0x8000cf4] = 0x2000002e
        0x08000c7e:    8809        ..      LDRH     r1,[r1,#0]
        0x08000c80:    4288        .B      CMP      r0,r1
        0x08000c82:    d024        $.      BEQ      0x8000cce ; Launch_Task_Schedule + 130
        0x08000c84:    4818        .H      LDR      r0,[pc,#96] ; [0x8000ce8] = 0x20000038
        0x08000c86:    6800        .h      LDR      r0,[r0,#0]
        0x08000c88:    eb000140    ..@.    ADD      r1,r0,r0,LSL #1
        0x08000c8c:    eb0100c0    ....    ADD      r0,r1,r0,LSL #3
        0x08000c90:    4917        .I      LDR      r1,[pc,#92] ; [0x8000cf0] = 0x200000bc
        0x08000c92:    f8510020    Q. .    LDR      r0,[r1,r0,LSL #2]
        0x08000c96:    8800        ..      LDRH     r0,[r0,#0]
        0x08000c98:    4917        .I      LDR      r1,[pc,#92] ; [0x8000cf8] = 0x2000002c
        0x08000c9a:    8809        ..      LDRH     r1,[r1,#0]
        0x08000c9c:    4288        .B      CMP      r0,r1
        0x08000c9e:    d016        ..      BEQ      0x8000cce ; Launch_Task_Schedule + 130
        0x08000ca0:    4811        .H      LDR      r0,[pc,#68] ; [0x8000ce8] = 0x20000038
        0x08000ca2:    6800        .h      LDR      r0,[r0,#0]
        0x08000ca4:    eb000140    ..@.    ADD      r1,r0,r0,LSL #1
        0x08000ca8:    eb0100c0    ....    ADD      r0,r1,r0,LSL #3
        0x08000cac:    4910        .I      LDR      r1,[pc,#64] ; [0x8000cf0] = 0x200000bc
        0x08000cae:    eb010080    ....    ADD      r0,r1,r0,LSL #2
        0x08000cb2:    6940        @i      LDR      r0,[r0,#0x14]
        0x08000cb4:    4911        .I      LDR      r1,[pc,#68] ; [0x8000cfc] = 0x20000030
        0x08000cb6:    6809        .h      LDR      r1,[r1,#0]
        0x08000cb8:    4408        .D      ADD      r0,r0,r1
        0x08000cba:    490b        .I      LDR      r1,[pc,#44] ; [0x8000ce8] = 0x20000038
        0x08000cbc:    6809        .h      LDR      r1,[r1,#0]
        0x08000cbe:    eb010241    ..A.    ADD      r2,r1,r1,LSL #1
        0x08000cc2:    eb0201c1    ....    ADD      r1,r2,r1,LSL #3
        0x08000cc6:    4a0a        .J      LDR      r2,[pc,#40] ; [0x8000cf0] = 0x200000bc
        0x08000cc8:    eb020181    ....    ADD      r1,r2,r1,LSL #2
        0x08000ccc:    6108        .a      STR      r0,[r1,#0x10]
        0x08000cce:    e000        ..      B        0x8000cd2 ; Launch_Task_Schedule + 134
        0x08000cd0:    e005        ..      B        0x8000cde ; Launch_Task_Schedule + 146
        0x08000cd2:    480b        .H      LDR      r0,[pc,#44] ; [0x8000d00] = 0xe000ed04
        0x08000cd4:    6800        .h      LDR      r0,[r0,#0]
        0x08000cd6:    f0405080    @..P    ORR      r0,r0,#0x10000000
        0x08000cda:    4909        .I      LDR      r1,[pc,#36] ; [0x8000d00] = 0xe000ed04
        0x08000cdc:    6008        .`      STR      r0,[r1,#0]
        0x08000cde:    4770        pG      BX       lr
    $d
        0x08000ce0:    2000003c    <..     DCD    536870972
        0x08000ce4:    20000028    (..     DCD    536870952
        0x08000ce8:    20000038    8..     DCD    536870968
        0x08000cec:    20000034    4..     DCD    536870964
        0x08000cf0:    200000bc    ...     DCD    536871100
        0x08000cf4:    2000002e    ...     DCD    536870958
        0x08000cf8:    2000002c    ,..     DCD    536870956
        0x08000cfc:    20000030    0..     DCD    536870960
        0x08000d00:    e000ed04    ....    DCD    3758157060
    $t
    i.List_insert
    List_insert
        0x08000d04:    b5f0        ..      PUSH     {r4-r7,lr}
        0x08000d06:    4606        .F      MOV      r6,r0
        0x08000d08:    460c        .F      MOV      r4,r1
        0x08000d0a:    4617        .F      MOV      r7,r2
        0x08000d0c:    4621        !F      MOV      r1,r4
        0x08000d0e:    4630        0F      MOV      r0,r6
        0x08000d10:    f000f86c    ..l.    BL       List_remove_node ; 0x8000dec
        0x08000d14:    b116        ..      CBZ      r6,0x8000d1c ; List_insert + 24
        0x08000d16:    2e01        ..      CMP      r6,#1
        0x08000d18:    d160        `.      BNE      0x8000ddc ; List_insert + 216
        0x08000d1a:    e026        &.      B        0x8000d6a ; List_insert + 102
        0x08000d1c:    68e0        .h      LDR      r0,[r4,#0xc]
        0x08000d1e:    4931        1I      LDR      r1,[pc,#196] ; [0x8000de4] = 0x20000024
        0x08000d20:    6809        .h      LDR      r1,[r1,#0]
        0x08000d22:    68c9        .h      LDR      r1,[r1,#0xc]
        0x08000d24:    4288        .B      CMP      r0,r1
        0x08000d26:    d205        ..      BCS      0x8000d34 ; List_insert + 48
        0x08000d28:    482e        .H      LDR      r0,[pc,#184] ; [0x8000de4] = 0x20000024
        0x08000d2a:    6800        .h      LDR      r0,[r0,#0]
        0x08000d2c:    6260        `b      STR      r0,[r4,#0x24]
        0x08000d2e:    482d        -H      LDR      r0,[pc,#180] ; [0x8000de4] = 0x20000024
        0x08000d30:    6004        .`      STR      r4,[r0,#0]
        0x08000d32:    e019        ..      B        0x8000d68 ; List_insert + 100
        0x08000d34:    482b        +H      LDR      r0,[pc,#172] ; [0x8000de4] = 0x20000024
        0x08000d36:    6805        .h      LDR      r5,[r0,#0]
        0x08000d38:    e00d        ..      B        0x8000d56 ; List_insert + 82
        0x08000d3a:    68e0        .h      LDR      r0,[r4,#0xc]
        0x08000d3c:    68e9        .h      LDR      r1,[r5,#0xc]
        0x08000d3e:    4288        .B      CMP      r0,r1
        0x08000d40:    d308        ..      BCC      0x8000d54 ; List_insert + 80
        0x08000d42:    68e0        .h      LDR      r0,[r4,#0xc]
        0x08000d44:    6a69        ij      LDR      r1,[r5,#0x24]
        0x08000d46:    68c9        .h      LDR      r1,[r1,#0xc]
        0x08000d48:    4288        .B      CMP      r0,r1
        0x08000d4a:    d803        ..      BHI      0x8000d54 ; List_insert + 80
        0x08000d4c:    6a68        hj      LDR      r0,[r5,#0x24]
        0x08000d4e:    6260        `b      STR      r0,[r4,#0x24]
        0x08000d50:    626c        lb      STR      r4,[r5,#0x24]
        0x08000d52:    e003        ..      B        0x8000d5c ; List_insert + 88
        0x08000d54:    6a6d        mj      LDR      r5,[r5,#0x24]
        0x08000d56:    6a68        hj      LDR      r0,[r5,#0x24]
        0x08000d58:    2800        .(      CMP      r0,#0
        0x08000d5a:    d1ee        ..      BNE      0x8000d3a ; List_insert + 54
        0x08000d5c:    bf00        ..      NOP      
        0x08000d5e:    6a68        hj      LDR      r0,[r5,#0x24]
        0x08000d60:    b910        ..      CBNZ     r0,0x8000d68 ; List_insert + 100
        0x08000d62:    626c        lb      STR      r4,[r5,#0x24]
        0x08000d64:    2000        .       MOVS     r0,#0
        0x08000d66:    6260        `b      STR      r0,[r4,#0x24]
        0x08000d68:    e039        9.      B        0x8000dde ; List_insert + 218
        0x08000d6a:    7a20         z      LDRB     r0,[r4,#8]
        0x08000d6c:    b3a8        ..      CBZ      r0,0x8000dda ; List_insert + 214
        0x08000d6e:    7a60        `z      LDRB     r0,[r4,#9]
        0x08000d70:    b398        ..      CBZ      r0,0x8000dda ; List_insert + 214
        0x08000d72:    8960        `.      LDRH     r0,[r4,#0xa]
        0x08000d74:    491c        .I      LDR      r1,[pc,#112] ; [0x8000de8] = 0x20000028
        0x08000d76:    6809        .h      LDR      r1,[r1,#0]
        0x08000d78:    8949        I.      LDRH     r1,[r1,#0xa]
        0x08000d7a:    4288        .B      CMP      r0,r1
        0x08000d7c:    dd05        ..      BLE      0x8000d8a ; List_insert + 134
        0x08000d7e:    481a        .H      LDR      r0,[pc,#104] ; [0x8000de8] = 0x20000028
        0x08000d80:    6800        .h      LDR      r0,[r0,#0]
        0x08000d82:    62a0        .b      STR      r0,[r4,#0x28]
        0x08000d84:    4818        .H      LDR      r0,[pc,#96] ; [0x8000de8] = 0x20000028
        0x08000d86:    6004        .`      STR      r4,[r0,#0]
        0x08000d88:    e027        '.      B        0x8000dda ; List_insert + 214
        0x08000d8a:    4817        .H      LDR      r0,[pc,#92] ; [0x8000de8] = 0x20000028
        0x08000d8c:    6805        .h      LDR      r5,[r0,#0]
        0x08000d8e:    e01b        ..      B        0x8000dc8 ; List_insert + 196
        0x08000d90:    b967        g.      CBNZ     r7,0x8000dac ; List_insert + 168
        0x08000d92:    8960        `.      LDRH     r0,[r4,#0xa]
        0x08000d94:    8969        i.      LDRH     r1,[r5,#0xa]
        0x08000d96:    4288        .B      CMP      r0,r1
        0x08000d98:    dc15        ..      BGT      0x8000dc6 ; List_insert + 194
        0x08000d9a:    8960        `.      LDRH     r0,[r4,#0xa]
        0x08000d9c:    6aa9        .j      LDR      r1,[r5,#0x28]
        0x08000d9e:    8949        I.      LDRH     r1,[r1,#0xa]
        0x08000da0:    4288        .B      CMP      r0,r1
        0x08000da2:    dd10        ..      BLE      0x8000dc6 ; List_insert + 194
        0x08000da4:    6aa8        .j      LDR      r0,[r5,#0x28]
        0x08000da6:    62a0        .b      STR      r0,[r4,#0x28]
        0x08000da8:    62ac        .b      STR      r4,[r5,#0x28]
        0x08000daa:    e010        ..      B        0x8000dce ; List_insert + 202
        0x08000dac:    8960        `.      LDRH     r0,[r4,#0xa]
        0x08000dae:    8969        i.      LDRH     r1,[r5,#0xa]
        0x08000db0:    4288        .B      CMP      r0,r1
        0x08000db2:    dc08        ..      BGT      0x8000dc6 ; List_insert + 194
        0x08000db4:    8960        `.      LDRH     r0,[r4,#0xa]
        0x08000db6:    6aa9        .j      LDR      r1,[r5,#0x28]
        0x08000db8:    8949        I.      LDRH     r1,[r1,#0xa]
        0x08000dba:    4288        .B      CMP      r0,r1
        0x08000dbc:    db03        ..      BLT      0x8000dc6 ; List_insert + 194
        0x08000dbe:    6aa8        .j      LDR      r0,[r5,#0x28]
        0x08000dc0:    62a0        .b      STR      r0,[r4,#0x28]
        0x08000dc2:    62ac        .b      STR      r4,[r5,#0x28]
        0x08000dc4:    e003        ..      B        0x8000dce ; List_insert + 202
        0x08000dc6:    6aad        .j      LDR      r5,[r5,#0x28]
        0x08000dc8:    6aa8        .j      LDR      r0,[r5,#0x28]
        0x08000dca:    2800        .(      CMP      r0,#0
        0x08000dcc:    d1e0        ..      BNE      0x8000d90 ; List_insert + 140
        0x08000dce:    bf00        ..      NOP      
        0x08000dd0:    6aa8        .j      LDR      r0,[r5,#0x28]
        0x08000dd2:    b910        ..      CBNZ     r0,0x8000dda ; List_insert + 214
        0x08000dd4:    62ac        .b      STR      r4,[r5,#0x28]
        0x08000dd6:    2000        .       MOVS     r0,#0
        0x08000dd8:    62a0        .b      STR      r0,[r4,#0x28]
        0x08000dda:    e000        ..      B        0x8000dde ; List_insert + 218
        0x08000ddc:    bf00        ..      NOP      
        0x08000dde:    bf00        ..      NOP      
        0x08000de0:    bdf0        ..      POP      {r4-r7,pc}
    $d
        0x08000de2:    0000        ..      DCW    0
        0x08000de4:    20000024    $..     DCD    536870948
        0x08000de8:    20000028    (..     DCD    536870952
    $t
    i.List_remove_node
    List_remove_node
        0x08000dec:    b510        ..      PUSH     {r4,lr}
        0x08000dee:    4602        .F      MOV      r2,r0
        0x08000df0:    b112        ..      CBZ      r2,0x8000df8 ; List_remove_node + 12
        0x08000df2:    2a01        .*      CMP      r2,#1
        0x08000df4:    d13c        <.      BNE      0x8000e70 ; List_remove_node + 132
        0x08000df6:    e01d        ..      B        0x8000e34 ; List_remove_node + 72
        0x08000df8:    4c1f        .L      LDR      r4,[pc,#124] ; [0x8000e78] = 0x20000024
        0x08000dfa:    680b        .h      LDR      r3,[r1,#0]
        0x08000dfc:    6824        $h      LDR      r4,[r4,#0]
        0x08000dfe:    6824        $h      LDR      r4,[r4,#0]
        0x08000e00:    42a3        .B      CMP      r3,r4
        0x08000e02:    d105        ..      BNE      0x8000e10 ; List_remove_node + 36
        0x08000e04:    4b1c        .K      LDR      r3,[pc,#112] ; [0x8000e78] = 0x20000024
        0x08000e06:    681b        .h      LDR      r3,[r3,#0]
        0x08000e08:    6a5b        [j      LDR      r3,[r3,#0x24]
        0x08000e0a:    4c1b        .L      LDR      r4,[pc,#108] ; [0x8000e78] = 0x20000024
        0x08000e0c:    6023        #`      STR      r3,[r4,#0]
        0x08000e0e:    e010        ..      B        0x8000e32 ; List_remove_node + 70
        0x08000e10:    4b19        .K      LDR      r3,[pc,#100] ; [0x8000e78] = 0x20000024
        0x08000e12:    6818        .h      LDR      r0,[r3,#0]
        0x08000e14:    e009        ..      B        0x8000e2a ; List_remove_node + 62
        0x08000e16:    6a43        Cj      LDR      r3,[r0,#0x24]
        0x08000e18:    681b        .h      LDR      r3,[r3,#0]
        0x08000e1a:    680c        .h      LDR      r4,[r1,#0]
        0x08000e1c:    42a3        .B      CMP      r3,r4
        0x08000e1e:    d103        ..      BNE      0x8000e28 ; List_remove_node + 60
        0x08000e20:    6a43        Cj      LDR      r3,[r0,#0x24]
        0x08000e22:    6a5b        [j      LDR      r3,[r3,#0x24]
        0x08000e24:    6243        Cb      STR      r3,[r0,#0x24]
        0x08000e26:    e003        ..      B        0x8000e30 ; List_remove_node + 68
        0x08000e28:    6a40        @j      LDR      r0,[r0,#0x24]
        0x08000e2a:    6a43        Cj      LDR      r3,[r0,#0x24]
        0x08000e2c:    2b00        .+      CMP      r3,#0
        0x08000e2e:    d1f2        ..      BNE      0x8000e16 ; List_remove_node + 42
        0x08000e30:    bf00        ..      NOP      
        0x08000e32:    e01e        ..      B        0x8000e72 ; List_remove_node + 134
        0x08000e34:    4c11        .L      LDR      r4,[pc,#68] ; [0x8000e7c] = 0x20000028
        0x08000e36:    680b        .h      LDR      r3,[r1,#0]
        0x08000e38:    6824        $h      LDR      r4,[r4,#0]
        0x08000e3a:    6824        $h      LDR      r4,[r4,#0]
        0x08000e3c:    42a3        .B      CMP      r3,r4
        0x08000e3e:    d105        ..      BNE      0x8000e4c ; List_remove_node + 96
        0x08000e40:    4b0e        .K      LDR      r3,[pc,#56] ; [0x8000e7c] = 0x20000028
        0x08000e42:    681b        .h      LDR      r3,[r3,#0]
        0x08000e44:    6a9b        .j      LDR      r3,[r3,#0x28]
        0x08000e46:    4c0d        .L      LDR      r4,[pc,#52] ; [0x8000e7c] = 0x20000028
        0x08000e48:    6023        #`      STR      r3,[r4,#0]
        0x08000e4a:    e010        ..      B        0x8000e6e ; List_remove_node + 130
        0x08000e4c:    4b0b        .K      LDR      r3,[pc,#44] ; [0x8000e7c] = 0x20000028
        0x08000e4e:    6818        .h      LDR      r0,[r3,#0]
        0x08000e50:    e009        ..      B        0x8000e66 ; List_remove_node + 122
        0x08000e52:    6a83        .j      LDR      r3,[r0,#0x28]
        0x08000e54:    681b        .h      LDR      r3,[r3,#0]
        0x08000e56:    680c        .h      LDR      r4,[r1,#0]
        0x08000e58:    42a3        .B      CMP      r3,r4
        0x08000e5a:    d103        ..      BNE      0x8000e64 ; List_remove_node + 120
        0x08000e5c:    6a83        .j      LDR      r3,[r0,#0x28]
        0x08000e5e:    6a9b        .j      LDR      r3,[r3,#0x28]
        0x08000e60:    6283        .b      STR      r3,[r0,#0x28]
        0x08000e62:    e003        ..      B        0x8000e6c ; List_remove_node + 128
        0x08000e64:    6a80        .j      LDR      r0,[r0,#0x28]
        0x08000e66:    6a83        .j      LDR      r3,[r0,#0x28]
        0x08000e68:    2b00        .+      CMP      r3,#0
        0x08000e6a:    d1f2        ..      BNE      0x8000e52 ; List_remove_node + 102
        0x08000e6c:    bf00        ..      NOP      
        0x08000e6e:    e000        ..      B        0x8000e72 ; List_remove_node + 134
        0x08000e70:    bf00        ..      NOP      
        0x08000e72:    bf00        ..      NOP      
        0x08000e74:    bd10        ..      POP      {r4,pc}
    $d
        0x08000e76:    0000        ..      DCW    0
        0x08000e78:    20000024    $..     DCD    536870948
        0x08000e7c:    20000028    (..     DCD    536870952
    $t
    i.MemManage_Handler
    MemManage_Handler
        0x08000e80:    bf00        ..      NOP      
        0x08000e82:    e7fe        ..      B        0x8000e82 ; MemManage_Handler + 2
    i.NMI_Handler
    NMI_Handler
        0x08000e84:    4770        pG      BX       lr
    i.NVIC_Configuration
    NVIC_Configuration
        0x08000e86:    b508        ..      PUSH     {r3,lr}
        0x08000e88:    f44f60e0    O..`    MOV      r0,#0x700
        0x08000e8c:    f000f848    ..H.    BL       NVIC_PriorityGroupConfig ; 0x8000f20
        0x08000e90:    2025        %       MOVS     r0,#0x25
        0x08000e92:    f88d0000    ....    STRB     r0,[sp,#0]
        0x08000e96:    2000        .       MOVS     r0,#0
        0x08000e98:    f88d0001    ....    STRB     r0,[sp,#1]
        0x08000e9c:    2001        .       MOVS     r0,#1
        0x08000e9e:    f88d0002    ....    STRB     r0,[sp,#2]
        0x08000ea2:    f88d0003    ....    STRB     r0,[sp,#3]
        0x08000ea6:    4668        hF      MOV      r0,sp
        0x08000ea8:    f000f802    ....    BL       NVIC_Init ; 0x8000eb0
        0x08000eac:    bd08        ..      POP      {r3,pc}
        0x08000eae:    0000        ..      MOVS     r0,r0
    i.NVIC_Init
    NVIC_Init
        0x08000eb0:    b570        p.      PUSH     {r4-r6,lr}
        0x08000eb2:    2100        .!      MOVS     r1,#0
        0x08000eb4:    2300        .#      MOVS     r3,#0
        0x08000eb6:    220f        ."      MOVS     r2,#0xf
        0x08000eb8:    78c4        .x      LDRB     r4,[r0,#3]
        0x08000eba:    b304        ..      CBZ      r4,0x8000efe ; NVIC_Init + 78
        0x08000ebc:    4c15        .L      LDR      r4,[pc,#84] ; [0x8000f14] = 0xe000ed0c
        0x08000ebe:    6824        $h      LDR      r4,[r4,#0]
        0x08000ec0:    f40464e0    ...d    AND      r4,r4,#0x700
        0x08000ec4:    f5c464e0    ...d    RSB      r4,r4,#0x700
        0x08000ec8:    0a21        !.      LSRS     r1,r4,#8
        0x08000eca:    f1c10304    ....    RSB      r3,r1,#4
        0x08000ece:    40ca        .@      LSRS     r2,r2,r1
        0x08000ed0:    7844        Dx      LDRB     r4,[r0,#1]
        0x08000ed2:    fa04f103    ....    LSL      r1,r4,r3
        0x08000ed6:    7884        .x      LDRB     r4,[r0,#2]
        0x08000ed8:    4014        .@      ANDS     r4,r4,r2
        0x08000eda:    4321        !C      ORRS     r1,r1,r4
        0x08000edc:    0109        ..      LSLS     r1,r1,#4
        0x08000ede:    4c0e        .L      LDR      r4,[pc,#56] ; [0x8000f18] = 0xe000e400
        0x08000ee0:    7806        .x      LDRB     r6,[r0,#0]
        0x08000ee2:    55a1        .U      STRB     r1,[r4,r6]
        0x08000ee4:    7804        .x      LDRB     r4,[r0,#0]
        0x08000ee6:    f004051f    ....    AND      r5,r4,#0x1f
        0x08000eea:    2401        .$      MOVS     r4,#1
        0x08000eec:    40ac        .@      LSLS     r4,r4,r5
        0x08000eee:    7805        .x      LDRB     r5,[r0,#0]
        0x08000ef0:    116d        m.      ASRS     r5,r5,#5
        0x08000ef2:    00ad        ..      LSLS     r5,r5,#2
        0x08000ef4:    f10525e0    ...%    ADD      r5,r5,#0xe000e000
        0x08000ef8:    f8c54100    ...A    STR      r4,[r5,#0x100]
        0x08000efc:    e009        ..      B        0x8000f12 ; NVIC_Init + 98
        0x08000efe:    7804        .x      LDRB     r4,[r0,#0]
        0x08000f00:    f004051f    ....    AND      r5,r4,#0x1f
        0x08000f04:    2401        .$      MOVS     r4,#1
        0x08000f06:    40ac        .@      LSLS     r4,r4,r5
        0x08000f08:    4d04        .M      LDR      r5,[pc,#16] ; [0x8000f1c] = 0xe000e180
        0x08000f0a:    7806        .x      LDRB     r6,[r0,#0]
        0x08000f0c:    1176        v.      ASRS     r6,r6,#5
        0x08000f0e:    f8454026    E.&@    STR      r4,[r5,r6,LSL #2]
        0x08000f12:    bd70        p.      POP      {r4-r6,pc}
    $d
        0x08000f14:    e000ed0c    ....    DCD    3758157068
        0x08000f18:    e000e400    ....    DCD    3758154752
        0x08000f1c:    e000e180    ....    DCD    3758154112
    $t
    i.NVIC_PriorityGroupConfig
    NVIC_PriorityGroupConfig
        0x08000f20:    4902        .I      LDR      r1,[pc,#8] ; [0x8000f2c] = 0x5fa0000
        0x08000f22:    4301        .C      ORRS     r1,r1,r0
        0x08000f24:    4a02        .J      LDR      r2,[pc,#8] ; [0x8000f30] = 0xe000ed0c
        0x08000f26:    6011        .`      STR      r1,[r2,#0]
        0x08000f28:    4770        pG      BX       lr
    $d
        0x08000f2a:    0000        ..      DCW    0
        0x08000f2c:    05fa0000    ....    DCD    100270080
        0x08000f30:    e000ed0c    ....    DCD    3758157068
    $t
    i.NVIC_SetPriority
    NVIC_SetPriority
        0x08000f34:    b510        ..      PUSH     {r4,lr}
        0x08000f36:    2800        .(      CMP      r0,#0
        0x08000f38:    da07        ..      BGE      0x8000f4a ; NVIC_SetPriority + 22
        0x08000f3a:    070a        ..      LSLS     r2,r1,#28
        0x08000f3c:    0e14        ..      LSRS     r4,r2,#24
        0x08000f3e:    4a05        .J      LDR      r2,[pc,#20] ; [0x8000f54] = 0xe000ed18
        0x08000f40:    f000030f    ....    AND      r3,r0,#0xf
        0x08000f44:    1f1b        ..      SUBS     r3,r3,#4
        0x08000f46:    54d4        .T      STRB     r4,[r2,r3]
        0x08000f48:    e003        ..      B        0x8000f52 ; NVIC_SetPriority + 30
        0x08000f4a:    070a        ..      LSLS     r2,r1,#28
        0x08000f4c:    0e13        ..      LSRS     r3,r2,#24
        0x08000f4e:    4a02        .J      LDR      r2,[pc,#8] ; [0x8000f58] = 0xe000e400
        0x08000f50:    5413        .T      STRB     r3,[r2,r0]
        0x08000f52:    bd10        ..      POP      {r4,pc}
    $d
        0x08000f54:    e000ed18    ....    DCD    3758157080
        0x08000f58:    e000e400    ....    DCD    3758154752
    $t
    i.Pend_Schedule
    Pend_Schedule
        0x08000f5c:    b510        ..      PUSH     {r4,lr}
        0x08000f5e:    f7fffd11    ....    BL       Enter_Critical ; 0x8000984
        0x08000f62:    4604        .F      MOV      r4,r0
        0x08000f64:    2001        .       MOVS     r0,#1
        0x08000f66:    4903        .I      LDR      r1,[pc,#12] ; [0x8000f74] = 0x2000003c
        0x08000f68:    7008        .p      STRB     r0,[r1,#0]
        0x08000f6a:    4620         F      MOV      r0,r4
        0x08000f6c:    f7fffd14    ....    BL       Exit_Critical ; 0x8000998
        0x08000f70:    bd10        ..      POP      {r4,pc}
    $d
        0x08000f72:    0000        ..      DCW    0
        0x08000f74:    2000003c    <..     DCD    536870972
    $t
    i.Pend_Task
    Pend_Task
        0x08000f78:    b570        p.      PUSH     {r4-r6,lr}
        0x08000f7a:    4604        .F      MOV      r4,r0
        0x08000f7c:    f7fffd02    ....    BL       Enter_Critical ; 0x8000984
        0x08000f80:    4605        .F      MOV      r5,r0
        0x08000f82:    2000        .       MOVS     r0,#0
        0x08000f84:    eb040144    ..D.    ADD      r1,r4,r4,LSL #1
        0x08000f88:    eb0101c4    ....    ADD      r1,r1,r4,LSL #3
        0x08000f8c:    4a0c        .J      LDR      r2,[pc,#48] ; [0x8000fc0] = 0x200000bc
        0x08000f8e:    eb020181    ....    ADD      r1,r2,r1,LSL #2
        0x08000f92:    7248        Hr      STRB     r0,[r1,#9]
        0x08000f94:    eb040144    ..D.    ADD      r1,r4,r4,LSL #1
        0x08000f98:    eb0101c4    ....    ADD      r1,r1,r4,LSL #3
        0x08000f9c:    eb020181    ....    ADD      r1,r2,r1,LSL #2
        0x08000fa0:    7208        .r      STRB     r0,[r1,#8]
        0x08000fa2:    eb040044    ..D.    ADD      r0,r4,r4,LSL #1
        0x08000fa6:    eb0000c4    ....    ADD      r0,r0,r4,LSL #3
        0x08000faa:    eb020180    ....    ADD      r1,r2,r0,LSL #2
        0x08000fae:    2001        .       MOVS     r0,#1
        0x08000fb0:    f7ffff1c    ....    BL       List_remove_node ; 0x8000dec
        0x08000fb4:    f7fffe4a    ..J.    BL       Launch_Task_Schedule ; 0x8000c4c
        0x08000fb8:    4628        (F      MOV      r0,r5
        0x08000fba:    f7fffced    ....    BL       Exit_Critical ; 0x8000998
        0x08000fbe:    bd70        p.      POP      {r4-r6,pc}
    $d
        0x08000fc0:    200000bc    ...     DCD    536871100
    $t
    i.QueueReceive
    QueueReceive
        0x08000fc4:    e92d47f0    -..G    PUSH     {r4-r10,lr}
        0x08000fc8:    4604        .F      MOV      r4,r0
        0x08000fca:    460f        .F      MOV      r7,r1
        0x08000fcc:    4690        .F      MOV      r8,r2
        0x08000fce:    461d        .F      MOV      r5,r3
        0x08000fd0:    f8dd9020    .. .    LDR      r9,[sp,#0x20]
        0x08000fd4:    2600        .&      MOVS     r6,#0
        0x08000fd6:    f7fffcd5    ....    BL       Enter_Critical ; 0x8000984
        0x08000fda:    4682        .F      MOV      r10,r0
        0x08000fdc:    4642        BF      MOV      r2,r8
        0x08000fde:    4639        9F      MOV      r1,r7
        0x08000fe0:    4620         F      MOV      r0,r4
        0x08000fe2:    f000f8c7    ....    BL       Queue_message_pull ; 0x8001174
        0x08000fe6:    4606        .F      MOV      r6,r0
        0x08000fe8:    2e01        ..      CMP      r6,#1
        0x08000fea:    d022        ".      BEQ      0x8001032 ; QueueReceive + 110
        0x08000fec:    f1b90f00    ....    CMP      r9,#0
        0x08000ff0:    d01e        ..      BEQ      0x8001030 ; QueueReceive + 108
        0x08000ff2:    b90d        ..      CBNZ     r5,0x8000ff8 ; QueueReceive + 52
        0x08000ff4:    2600        .&      MOVS     r6,#0
        0x08000ff6:    e01c        ..      B        0x8001032 ; QueueReceive + 110
        0x08000ff8:    2101        .!      MOVS     r1,#1
        0x08000ffa:    f1040008    ....    ADD      r0,r4,#8
        0x08000ffe:    4a10        .J      LDR      r2,[pc,#64] ; [0x8001040] = 0x20000034
        0x08001000:    6812        .h      LDR      r2,[r2,#0]
        0x08001002:    5481        .T      STRB     r1,[r0,r2]
        0x08001004:    4650        PF      MOV      r0,r10
        0x08001006:    f7fffcc7    ....    BL       Exit_Critical ; 0x8000998
        0x0800100a:    4628        (F      MOV      r0,r5
        0x0800100c:    f000f986    ....    BL       RTOS_Delay ; 0x800131c
        0x08001010:    f7fffcb8    ....    BL       Enter_Critical ; 0x8000984
        0x08001014:    4682        .F      MOV      r10,r0
        0x08001016:    2100        .!      MOVS     r1,#0
        0x08001018:    f1040008    ....    ADD      r0,r4,#8
        0x0800101c:    4a08        .J      LDR      r2,[pc,#32] ; [0x8001040] = 0x20000034
        0x0800101e:    6812        .h      LDR      r2,[r2,#0]
        0x08001020:    5481        .T      STRB     r1,[r0,r2]
        0x08001022:    4642        BF      MOV      r2,r8
        0x08001024:    4639        9F      MOV      r1,r7
        0x08001026:    4620         F      MOV      r0,r4
        0x08001028:    f000f8a4    ....    BL       Queue_message_pull ; 0x8001174
        0x0800102c:    4606        .F      MOV      r6,r0
        0x0800102e:    e000        ..      B        0x8001032 ; QueueReceive + 110
        0x08001030:    2600        .&      MOVS     r6,#0
        0x08001032:    4650        PF      MOV      r0,r10
        0x08001034:    f7fffcb0    ....    BL       Exit_Critical ; 0x8000998
        0x08001038:    4630        0F      MOV      r0,r6
        0x0800103a:    e8bd87f0    ....    POP      {r4-r10,pc}
    $d
        0x0800103e:    0000        ..      DCW    0
        0x08001040:    20000034    4..     DCD    536870964
    $t
    i.QueueSend
    QueueSend
        0x08001044:    e92d4ff8    -..O    PUSH     {r3-r11,lr}
        0x08001048:    4606        .F      MOV      r6,r0
        0x0800104a:    4689        .F      MOV      r9,r1
        0x0800104c:    4692        .F      MOV      r10,r2
        0x0800104e:    461f        .F      MOV      r7,r3
        0x08001050:    f8ddb028    ..(.    LDR      r11,[sp,#0x28]
        0x08001054:    bf00        ..      NOP      
        0x08001056:    4843        CH      LDR      r0,[pc,#268] ; [0x8001164] = 0x2000002c
        0x08001058:    8800        ..      LDRH     r0,[r0,#0]
        0x0800105a:    eb000140    ..@.    ADD      r1,r0,r0,LSL #1
        0x0800105e:    eb0100c0    ....    ADD      r0,r1,r0,LSL #3
        0x08001062:    4941        AI      LDR      r1,[pc,#260] ; [0x8001168] = 0x200000bc
        0x08001064:    eb010580    ....    ADD      r5,r1,r0,LSL #2
        0x08001068:    f7fffc8c    ....    BL       Enter_Critical ; 0x8000984
        0x0800106c:    9000        ..      STR      r0,[sp,#0]
        0x0800106e:    4652        RF      MOV      r2,r10
        0x08001070:    4649        IF      MOV      r1,r9
        0x08001072:    4630        0F      MOV      r0,r6
        0x08001074:    f000f8a9    ....    BL       Queue_message_push ; 0x80011ca
        0x08001078:    4680        .F      MOV      r8,r0
        0x0800107a:    f1b80f01    ....    CMP      r8,#1
        0x0800107e:    d024        $.      BEQ      0x80010ca ; QueueSend + 134
        0x08001080:    f1bb0f00    ....    CMP      r11,#0
        0x08001084:    d01f        ..      BEQ      0x80010c6 ; QueueSend + 130
        0x08001086:    b917        ..      CBNZ     r7,0x800108e ; QueueSend + 74
        0x08001088:    f04f0800    O...    MOV      r8,#0
        0x0800108c:    e01d        ..      B        0x80010ca ; QueueSend + 134
        0x0800108e:    2101        .!      MOVS     r1,#1
        0x08001090:    f1060008    ....    ADD      r0,r6,#8
        0x08001094:    4a35        5J      LDR      r2,[pc,#212] ; [0x800116c] = 0x20000034
        0x08001096:    6812        .h      LDR      r2,[r2,#0]
        0x08001098:    5481        .T      STRB     r1,[r0,r2]
        0x0800109a:    9800        ..      LDR      r0,[sp,#0]
        0x0800109c:    f7fffc7c    ..|.    BL       Exit_Critical ; 0x8000998
        0x080010a0:    4638        8F      MOV      r0,r7
        0x080010a2:    f000f93b    ..;.    BL       RTOS_Delay ; 0x800131c
        0x080010a6:    f7fffc6d    ..m.    BL       Enter_Critical ; 0x8000984
        0x080010aa:    9000        ..      STR      r0,[sp,#0]
        0x080010ac:    2100        .!      MOVS     r1,#0
        0x080010ae:    f1060008    ....    ADD      r0,r6,#8
        0x080010b2:    4a2e        .J      LDR      r2,[pc,#184] ; [0x800116c] = 0x20000034
        0x080010b4:    6812        .h      LDR      r2,[r2,#0]
        0x080010b6:    5481        .T      STRB     r1,[r0,r2]
        0x080010b8:    4652        RF      MOV      r2,r10
        0x080010ba:    4649        IF      MOV      r1,r9
        0x080010bc:    4630        0F      MOV      r0,r6
        0x080010be:    f000f884    ....    BL       Queue_message_push ; 0x80011ca
        0x080010c2:    4680        .F      MOV      r8,r0
        0x080010c4:    e001        ..      B        0x80010ca ; QueueSend + 134
        0x080010c6:    f04f0800    O...    MOV      r8,#0
        0x080010ca:    f1b80f01    ....    CMP      r8,#1
        0x080010ce:    d143        C.      BNE      0x8001158 ; QueueSend + 276
        0x080010d0:    2400        .$      MOVS     r4,#0
        0x080010d2:    e024        $.      B        0x800111e ; QueueSend + 218
        0x080010d4:    f1060008    ....    ADD      r0,r6,#8
        0x080010d8:    5d00        .]      LDRB     r0,[r0,r4]
        0x080010da:    2801        .(      CMP      r0,#1
        0x080010dc:    d11d        ..      BNE      0x800111a ; QueueSend + 214
        0x080010de:    eb040044    ..D.    ADD      r0,r4,r4,LSL #1
        0x080010e2:    eb0000c4    ....    ADD      r0,r0,r4,LSL #3
        0x080010e6:    4920         I      LDR      r1,[pc,#128] ; [0x8001168] = 0x200000bc
        0x080010e8:    f8510020    Q. .    LDR      r0,[r1,r0,LSL #2]
        0x080010ec:    8800        ..      LDRH     r0,[r0,#0]
        0x080010ee:    4920         I      LDR      r1,[pc,#128] ; [0x8001170] = 0x20000044
        0x080010f0:    8809        ..      LDRH     r1,[r1,#0]
        0x080010f2:    4288        .B      CMP      r0,r1
        0x080010f4:    d011        ..      BEQ      0x800111a ; QueueSend + 214
        0x080010f6:    8968        h.      LDRH     r0,[r5,#0xa]
        0x080010f8:    eb040144    ..D.    ADD      r1,r4,r4,LSL #1
        0x080010fc:    eb0101c4    ....    ADD      r1,r1,r4,LSL #3
        0x08001100:    4a19        .J      LDR      r2,[pc,#100] ; [0x8001168] = 0x200000bc
        0x08001102:    eb020181    ....    ADD      r1,r2,r1,LSL #2
        0x08001106:    8949        I.      LDRH     r1,[r1,#0xa]
        0x08001108:    4288        .B      CMP      r0,r1
        0x0800110a:    da06        ..      BGE      0x800111a ; QueueSend + 214
        0x0800110c:    eb040044    ..D.    ADD      r0,r4,r4,LSL #1
        0x08001110:    eb0000c4    ....    ADD      r0,r0,r4,LSL #3
        0x08001114:    4611        .F      MOV      r1,r2
        0x08001116:    eb010580    ....    ADD      r5,r1,r0,LSL #2
        0x0800111a:    1c60        `.      ADDS     r0,r4,#1
        0x0800111c:    b284        ..      UXTH     r4,r0
        0x0800111e:    2c05        .,      CMP      r4,#5
        0x08001120:    dbd8        ..      BLT      0x80010d4 ; QueueSend + 144
        0x08001122:    4810        .H      LDR      r0,[pc,#64] ; [0x8001164] = 0x2000002c
        0x08001124:    8800        ..      LDRH     r0,[r0,#0]
        0x08001126:    eb000140    ..@.    ADD      r1,r0,r0,LSL #1
        0x0800112a:    eb0100c0    ....    ADD      r0,r1,r0,LSL #3
        0x0800112e:    490e        .I      LDR      r1,[pc,#56] ; [0x8001168] = 0x200000bc
        0x08001130:    eb010080    ....    ADD      r0,r1,r0,LSL #2
        0x08001134:    42a8        .B      CMP      r0,r5
        0x08001136:    d00f        ..      BEQ      0x8001158 ; QueueSend + 276
        0x08001138:    2100        .!      MOVS     r1,#0
        0x0800113a:    6828        (h      LDR      r0,[r5,#0]
        0x0800113c:    8802        ..      LDRH     r2,[r0,#0]
        0x0800113e:    f1060008    ....    ADD      r0,r6,#8
        0x08001142:    5481        .T      STRB     r1,[r0,r2]
        0x08001144:    2001        .       MOVS     r0,#1
        0x08001146:    7228        (r      STRB     r0,[r5,#8]
        0x08001148:    7268        hr      STRB     r0,[r5,#9]
        0x0800114a:    2201        ."      MOVS     r2,#1
        0x0800114c:    4629        )F      MOV      r1,r5
        0x0800114e:    4610        .F      MOV      r0,r2
        0x08001150:    f7fffdd8    ....    BL       List_insert ; 0x8000d04
        0x08001154:    f7fffd7a    ..z.    BL       Launch_Task_Schedule ; 0x8000c4c
        0x08001158:    9800        ..      LDR      r0,[sp,#0]
        0x0800115a:    f7fffc1d    ....    BL       Exit_Critical ; 0x8000998
        0x0800115e:    4640        @F      MOV      r0,r8
        0x08001160:    e8bd8ff8    ....    POP      {r3-r11,pc}
    $d
        0x08001164:    2000002c    ,..     DCD    536870956
        0x08001168:    200000bc    ...     DCD    536871100
        0x0800116c:    20000034    4..     DCD    536870964
        0x08001170:    20000044    D..     DCD    536870980
    $t
    i.Queue_message_pull
    Queue_message_pull
        0x08001174:    e92d47f0    -..G    PUSH     {r4-r10,lr}
        0x08001178:    4604        .F      MOV      r4,r0
        0x0800117a:    460e        .F      MOV      r6,r1
        0x0800117c:    4690        .F      MOV      r8,r2
        0x0800117e:    f8d49000    ....    LDR      r9,[r4,#0]
        0x08001182:    4637        7F      MOV      r7,r6
        0x08001184:    6860        `h      LDR      r0,[r4,#4]
        0x08001186:    b920         .      CBNZ     r0,0x8001192 ; Queue_message_pull + 30
        0x08001188:    6820         h      LDR      r0,[r4,#0]
        0x0800118a:    b910        ..      CBNZ     r0,0x8001192 ; Queue_message_pull + 30
        0x0800118c:    2000        .       MOVS     r0,#0
        0x0800118e:    e8bd87f0    ....    POP      {r4-r10,pc}
        0x08001192:    6820         h      LDR      r0,[r4,#0]
        0x08001194:    6805        .h      LDR      r5,[r0,#0]
        0x08001196:    e003        ..      B        0x80011a0 ; Queue_message_pull + 44
        0x08001198:    f8150b01    ....    LDRB     r0,[r5],#1
        0x0800119c:    f8070b01    ....    STRB     r0,[r7],#1
        0x080011a0:    f1b80000    ....    SUBS     r0,r8,#0
        0x080011a4:    f1a80801    ....    SUB      r8,r8,#1
        0x080011a8:    d1f6        ..      BNE      0x8001198 ; Queue_message_pull + 36
        0x080011aa:    6820         h      LDR      r0,[r4,#0]
        0x080011ac:    6840        @h      LDR      r0,[r0,#4]
        0x080011ae:    6020         `      STR      r0,[r4,#0]
        0x080011b0:    f8d90000    ....    LDR      r0,[r9,#0]
        0x080011b4:    f001fd66    ..f.    BL       mini_free ; 0x8002c84
        0x080011b8:    4648        HF      MOV      r0,r9
        0x080011ba:    f001fd63    ..c.    BL       mini_free ; 0x8002c84
        0x080011be:    6820         h      LDR      r0,[r4,#0]
        0x080011c0:    b908        ..      CBNZ     r0,0x80011c6 ; Queue_message_pull + 82
        0x080011c2:    2000        .       MOVS     r0,#0
        0x080011c4:    6060        ``      STR      r0,[r4,#4]
        0x080011c6:    2001        .       MOVS     r0,#1
        0x080011c8:    e7e1        ..      B        0x800118e ; Queue_message_pull + 26
    i.Queue_message_push
    Queue_message_push
        0x080011ca:    e92d47f0    -..G    PUSH     {r4-r10,lr}
        0x080011ce:    4604        .F      MOV      r4,r0
        0x080011d0:    460f        .F      MOV      r7,r1
        0x080011d2:    4691        .F      MOV      r9,r2
        0x080011d4:    46b8        .F      MOV      r8,r7
        0x080011d6:    4648        HF      MOV      r0,r9
        0x080011d8:    f001fdae    ....    BL       mini_malloc ; 0x8002d38
        0x080011dc:    4606        .F      MOV      r6,r0
        0x080011de:    2008        .       MOVS     r0,#8
        0x080011e0:    f001fdaa    ....    BL       mini_malloc ; 0x8002d38
        0x080011e4:    4605        .F      MOV      r5,r0
        0x080011e6:    f1b80f00    ....    CMP      r8,#0
        0x080011ea:    d001        ..      BEQ      0x80011f0 ; Queue_message_push + 38
        0x080011ec:    b105        ..      CBZ      r5,0x80011f0 ; Queue_message_push + 38
        0x080011ee:    b916        ..      CBNZ     r6,0x80011f6 ; Queue_message_push + 44
        0x080011f0:    2000        .       MOVS     r0,#0
        0x080011f2:    e8bd87f0    ....    POP      {r4-r10,pc}
        0x080011f6:    6860        `h      LDR      r0,[r4,#4]
        0x080011f8:    b918        ..      CBNZ     r0,0x8001202 ; Queue_message_push + 56
        0x080011fa:    6820         h      LDR      r0,[r4,#0]
        0x080011fc:    b908        ..      CBNZ     r0,0x8001202 ; Queue_message_push + 56
        0x080011fe:    6025        %`      STR      r5,[r4,#0]
        0x08001200:    e001        ..      B        0x8001206 ; Queue_message_push + 60
        0x08001202:    6860        `h      LDR      r0,[r4,#4]
        0x08001204:    6045        E`      STR      r5,[r0,#4]
        0x08001206:    6065        e`      STR      r5,[r4,#4]
        0x08001208:    2000        .       MOVS     r0,#0
        0x0800120a:    6068        h`      STR      r0,[r5,#4]
        0x0800120c:    602e        .`      STR      r6,[r5,#0]
        0x0800120e:    e003        ..      B        0x8001218 ; Queue_message_push + 78
        0x08001210:    f8180b01    ....    LDRB     r0,[r8],#1
        0x08001214:    f8060b01    ....    STRB     r0,[r6],#1
        0x08001218:    f1b90000    ....    SUBS     r0,r9,#0
        0x0800121c:    f1a90901    ....    SUB      r9,r9,#1
        0x08001220:    d1f6        ..      BNE      0x8001210 ; Queue_message_push + 70
        0x08001222:    2001        .       MOVS     r0,#1
        0x08001224:    e7e5        ..      B        0x80011f2 ; Queue_message_push + 40
        0x08001226:    0000        ..      MOVS     r0,r0
    i.RCC_APB2PeriphClockCmd
    RCC_APB2PeriphClockCmd
        0x08001228:    b129        ).      CBZ      r1,0x8001236 ; RCC_APB2PeriphClockCmd + 14
        0x0800122a:    4a06        .J      LDR      r2,[pc,#24] ; [0x8001244] = 0x40021000
        0x0800122c:    6992        .i      LDR      r2,[r2,#0x18]
        0x0800122e:    4302        .C      ORRS     r2,r2,r0
        0x08001230:    4b04        .K      LDR      r3,[pc,#16] ; [0x8001244] = 0x40021000
        0x08001232:    619a        .a      STR      r2,[r3,#0x18]
        0x08001234:    e004        ..      B        0x8001240 ; RCC_APB2PeriphClockCmd + 24
        0x08001236:    4a03        .J      LDR      r2,[pc,#12] ; [0x8001244] = 0x40021000
        0x08001238:    6992        .i      LDR      r2,[r2,#0x18]
        0x0800123a:    4382        .C      BICS     r2,r2,r0
        0x0800123c:    4b01        .K      LDR      r3,[pc,#4] ; [0x8001244] = 0x40021000
        0x0800123e:    619a        .a      STR      r2,[r3,#0x18]
        0x08001240:    4770        pG      BX       lr
    $d
        0x08001242:    0000        ..      DCW    0
        0x08001244:    40021000    ...@    DCD    1073876992
    $t
    i.RCC_GetClocksFreq
    RCC_GetClocksFreq
        0x08001248:    b530        0.      PUSH     {r4,r5,lr}
        0x0800124a:    2100        .!      MOVS     r1,#0
        0x0800124c:    2200        ."      MOVS     r2,#0
        0x0800124e:    2400        .$      MOVS     r4,#0
        0x08001250:    2300        .#      MOVS     r3,#0
        0x08001252:    4d2d        -M      LDR      r5,[pc,#180] ; [0x8001308] = 0x40021000
        0x08001254:    686d        mh      LDR      r5,[r5,#4]
        0x08001256:    f005010c    ....    AND      r1,r5,#0xc
        0x0800125a:    b121        !.      CBZ      r1,0x8001266 ; RCC_GetClocksFreq + 30
        0x0800125c:    2904        .)      CMP      r1,#4
        0x0800125e:    d005        ..      BEQ      0x800126c ; RCC_GetClocksFreq + 36
        0x08001260:    2908        .)      CMP      r1,#8
        0x08001262:    d123        #.      BNE      0x80012ac ; RCC_GetClocksFreq + 100
        0x08001264:    e005        ..      B        0x8001272 ; RCC_GetClocksFreq + 42
        0x08001266:    4d29        )M      LDR      r5,[pc,#164] ; [0x800130c] = 0x7a1200
        0x08001268:    6005        .`      STR      r5,[r0,#0]
        0x0800126a:    e022        ".      B        0x80012b2 ; RCC_GetClocksFreq + 106
        0x0800126c:    4d27        'M      LDR      r5,[pc,#156] ; [0x800130c] = 0x7a1200
        0x0800126e:    6005        .`      STR      r5,[r0,#0]
        0x08001270:    e01f        ..      B        0x80012b2 ; RCC_GetClocksFreq + 106
        0x08001272:    4d25        %M      LDR      r5,[pc,#148] ; [0x8001308] = 0x40021000
        0x08001274:    686d        mh      LDR      r5,[r5,#4]
        0x08001276:    f4051270    ..p.    AND      r2,r5,#0x3c0000
        0x0800127a:    4d23        #M      LDR      r5,[pc,#140] ; [0x8001308] = 0x40021000
        0x0800127c:    686d        mh      LDR      r5,[r5,#4]
        0x0800127e:    f4053480    ...4    AND      r4,r5,#0x10000
        0x08001282:    2502        .%      MOVS     r5,#2
        0x08001284:    eb054292    ...B    ADD      r2,r5,r2,LSR #18
        0x08001288:    b91c        ..      CBNZ     r4,0x8001292 ; RCC_GetClocksFreq + 74
        0x0800128a:    4d21        !M      LDR      r5,[pc,#132] ; [0x8001310] = 0x3d0900
        0x0800128c:    4355        UC      MULS     r5,r2,r5
        0x0800128e:    6005        .`      STR      r5,[r0,#0]
        0x08001290:    e00b        ..      B        0x80012aa ; RCC_GetClocksFreq + 98
        0x08001292:    4d1d        .M      LDR      r5,[pc,#116] ; [0x8001308] = 0x40021000
        0x08001294:    686d        mh      LDR      r5,[r5,#4]
        0x08001296:    f4053500    ...5    AND      r5,r5,#0x20000
        0x0800129a:    b11d        ..      CBZ      r5,0x80012a4 ; RCC_GetClocksFreq + 92
        0x0800129c:    4d1c        .M      LDR      r5,[pc,#112] ; [0x8001310] = 0x3d0900
        0x0800129e:    4355        UC      MULS     r5,r2,r5
        0x080012a0:    6005        .`      STR      r5,[r0,#0]
        0x080012a2:    e002        ..      B        0x80012aa ; RCC_GetClocksFreq + 98
        0x080012a4:    4d19        .M      LDR      r5,[pc,#100] ; [0x800130c] = 0x7a1200
        0x080012a6:    4355        UC      MULS     r5,r2,r5
        0x080012a8:    6005        .`      STR      r5,[r0,#0]
        0x080012aa:    e002        ..      B        0x80012b2 ; RCC_GetClocksFreq + 106
        0x080012ac:    4d17        .M      LDR      r5,[pc,#92] ; [0x800130c] = 0x7a1200
        0x080012ae:    6005        .`      STR      r5,[r0,#0]
        0x080012b0:    bf00        ..      NOP      
        0x080012b2:    bf00        ..      NOP      
        0x080012b4:    4d14        .M      LDR      r5,[pc,#80] ; [0x8001308] = 0x40021000
        0x080012b6:    686d        mh      LDR      r5,[r5,#4]
        0x080012b8:    f00501f0    ....    AND      r1,r5,#0xf0
        0x080012bc:    0909        ..      LSRS     r1,r1,#4
        0x080012be:    4d15        .M      LDR      r5,[pc,#84] ; [0x8001314] = 0x20000000
        0x080012c0:    5c6b        k\      LDRB     r3,[r5,r1]
        0x080012c2:    6805        .h      LDR      r5,[r0,#0]
        0x080012c4:    40dd        .@      LSRS     r5,r5,r3
        0x080012c6:    6045        E`      STR      r5,[r0,#4]
        0x080012c8:    4d0f        .M      LDR      r5,[pc,#60] ; [0x8001308] = 0x40021000
        0x080012ca:    686d        mh      LDR      r5,[r5,#4]
        0x080012cc:    f40561e0    ...a    AND      r1,r5,#0x700
        0x080012d0:    0a09        ..      LSRS     r1,r1,#8
        0x080012d2:    4d10        .M      LDR      r5,[pc,#64] ; [0x8001314] = 0x20000000
        0x080012d4:    5c6b        k\      LDRB     r3,[r5,r1]
        0x080012d6:    6845        Eh      LDR      r5,[r0,#4]
        0x080012d8:    40dd        .@      LSRS     r5,r5,r3
        0x080012da:    6085        .`      STR      r5,[r0,#8]
        0x080012dc:    4d0a        .M      LDR      r5,[pc,#40] ; [0x8001308] = 0x40021000
        0x080012de:    686d        mh      LDR      r5,[r5,#4]
        0x080012e0:    f4055160    ..`Q    AND      r1,r5,#0x3800
        0x080012e4:    0ac9        ..      LSRS     r1,r1,#11
        0x080012e6:    4d0b        .M      LDR      r5,[pc,#44] ; [0x8001314] = 0x20000000
        0x080012e8:    5c6b        k\      LDRB     r3,[r5,r1]
        0x080012ea:    6845        Eh      LDR      r5,[r0,#4]
        0x080012ec:    40dd        .@      LSRS     r5,r5,r3
        0x080012ee:    60c5        .`      STR      r5,[r0,#0xc]
        0x080012f0:    4d05        .M      LDR      r5,[pc,#20] ; [0x8001308] = 0x40021000
        0x080012f2:    686d        mh      LDR      r5,[r5,#4]
        0x080012f4:    f4054140    ..@A    AND      r1,r5,#0xc000
        0x080012f8:    0b89        ..      LSRS     r1,r1,#14
        0x080012fa:    4d07        .M      LDR      r5,[pc,#28] ; [0x8001318] = 0x20000010
        0x080012fc:    5c6b        k\      LDRB     r3,[r5,r1]
        0x080012fe:    68c5        .h      LDR      r5,[r0,#0xc]
        0x08001300:    fbb5f5f3    ....    UDIV     r5,r5,r3
        0x08001304:    6105        .a      STR      r5,[r0,#0x10]
        0x08001306:    bd30        0.      POP      {r4,r5,pc}
    $d
        0x08001308:    40021000    ...@    DCD    1073876992
        0x0800130c:    007a1200    ..z.    DCD    8000000
        0x08001310:    003d0900    ..=.    DCD    4000000
        0x08001314:    20000000    ...     DCD    536870912
        0x08001318:    20000010    ...     DCD    536870928
    $t
    i.RTOS_Delay
    RTOS_Delay
        0x0800131c:    b570        p.      PUSH     {r4-r6,lr}
        0x0800131e:    4604        .F      MOV      r4,r0
        0x08001320:    f7fffb30    ..0.    BL       Enter_Critical ; 0x8000984
        0x08001324:    4605        .F      MOV      r5,r0
        0x08001326:    2000        .       MOVS     r0,#0
        0x08001328:    4921        !I      LDR      r1,[pc,#132] ; [0x80013b0] = 0x20000034
        0x0800132a:    6809        .h      LDR      r1,[r1,#0]
        0x0800132c:    eb010241    ..A.    ADD      r2,r1,r1,LSL #1
        0x08001330:    eb0201c1    ....    ADD      r1,r2,r1,LSL #3
        0x08001334:    4a1f        .J      LDR      r2,[pc,#124] ; [0x80013b4] = 0x200000bc
        0x08001336:    eb020181    ....    ADD      r1,r2,r1,LSL #2
        0x0800133a:    7208        .r      STRB     r0,[r1,#8]
        0x0800133c:    1c60        `.      ADDS     r0,r4,#1
        0x0800133e:    b1d0        ..      CBZ      r0,0x8001376 ; RTOS_Delay + 90
        0x08001340:    481d        .H      LDR      r0,[pc,#116] ; [0x80013b8] = 0x20000030
        0x08001342:    6800        .h      LDR      r0,[r0,#0]
        0x08001344:    4420         D      ADD      r0,r0,r4
        0x08001346:    491a        .I      LDR      r1,[pc,#104] ; [0x80013b0] = 0x20000034
        0x08001348:    6809        .h      LDR      r1,[r1,#0]
        0x0800134a:    eb010241    ..A.    ADD      r2,r1,r1,LSL #1
        0x0800134e:    eb0201c1    ....    ADD      r1,r2,r1,LSL #3
        0x08001352:    4a18        .J      LDR      r2,[pc,#96] ; [0x80013b4] = 0x200000bc
        0x08001354:    eb020181    ....    ADD      r1,r2,r1,LSL #2
        0x08001358:    60c8        .`      STR      r0,[r1,#0xc]
        0x0800135a:    4815        .H      LDR      r0,[pc,#84] ; [0x80013b0] = 0x20000034
        0x0800135c:    6800        .h      LDR      r0,[r0,#0]
        0x0800135e:    eb000240    ..@.    ADD      r2,r0,r0,LSL #1
        0x08001362:    eb0200c0    ....    ADD      r0,r2,r0,LSL #3
        0x08001366:    4a13        .J      LDR      r2,[pc,#76] ; [0x80013b4] = 0x200000bc
        0x08001368:    eb020180    ....    ADD      r1,r2,r0,LSL #2
        0x0800136c:    2201        ."      MOVS     r2,#1
        0x0800136e:    2000        .       MOVS     r0,#0
        0x08001370:    f7fffcc8    ....    BL       List_insert ; 0x8000d04
        0x08001374:    e00a        ..      B        0x800138c ; RTOS_Delay + 112
        0x08001376:    2000        .       MOVS     r0,#0
        0x08001378:    490d        .I      LDR      r1,[pc,#52] ; [0x80013b0] = 0x20000034
        0x0800137a:    6809        .h      LDR      r1,[r1,#0]
        0x0800137c:    eb010241    ..A.    ADD      r2,r1,r1,LSL #1
        0x08001380:    eb0201c1    ....    ADD      r1,r2,r1,LSL #3
        0x08001384:    4a0b        .J      LDR      r2,[pc,#44] ; [0x80013b4] = 0x200000bc
        0x08001386:    eb020181    ....    ADD      r1,r2,r1,LSL #2
        0x0800138a:    7248        Hr      STRB     r0,[r1,#9]
        0x0800138c:    4808        .H      LDR      r0,[pc,#32] ; [0x80013b0] = 0x20000034
        0x0800138e:    6800        .h      LDR      r0,[r0,#0]
        0x08001390:    eb000240    ..@.    ADD      r2,r0,r0,LSL #1
        0x08001394:    eb0200c0    ....    ADD      r0,r2,r0,LSL #3
        0x08001398:    4a06        .J      LDR      r2,[pc,#24] ; [0x80013b4] = 0x200000bc
        0x0800139a:    eb020180    ....    ADD      r1,r2,r0,LSL #2
        0x0800139e:    2001        .       MOVS     r0,#1
        0x080013a0:    f7fffd24    ..$.    BL       List_remove_node ; 0x8000dec
        0x080013a4:    f7fffc52    ..R.    BL       Launch_Task_Schedule ; 0x8000c4c
        0x080013a8:    4628        (F      MOV      r0,r5
        0x080013aa:    f7fffaf5    ....    BL       Exit_Critical ; 0x8000998
        0x080013ae:    bd70        p.      POP      {r4-r6,pc}
    $d
        0x080013b0:    20000034    4..     DCD    536870964
        0x080013b4:    200000bc    ...     DCD    536871100
        0x080013b8:    20000030    0..     DCD    536870960
    $t
    i.RTOS_Init
    RTOS_Init
        0x080013bc:    b51f        ..      PUSH     {r0-r4,lr}
        0x080013be:    4843        CH      LDR      r0,[pc,#268] ; [0x80014cc] = 0x8001fa1
        0x080013c0:    2132        2!      MOVS     r1,#0x32
        0x080013c2:    f04f32ff    O..2    MOV      r2,#0xffffffff
        0x080013c6:    9200        ..      STR      r2,[sp,#0]
        0x080013c8:    2300        .#      MOVS     r3,#0
        0x080013ca:    e9cd2101    ...!    STRD     r2,r1,[sp,#4]
        0x080013ce:    9003        ..      STR      r0,[sp,#0xc]
        0x080013d0:    2201        ."      MOVS     r2,#1
        0x080013d2:    a13f        ?.      ADR      r1,{pc}+0xfe ; 0x80014d0
        0x080013d4:    4841        AH      LDR      r0,[pc,#260] ; [0x80014dc] = 0x2000002e
        0x080013d6:    f000fead    ....    BL       Task_Create ; 0x8002134
        0x080013da:    4841        AH      LDR      r0,[pc,#260] ; [0x80014e0] = 0x8000b4b
        0x080013dc:    2164        d!      MOVS     r1,#0x64
        0x080013de:    f04f32ff    O..2    MOV      r2,#0xffffffff
        0x080013e2:    9200        ..      STR      r2,[sp,#0]
        0x080013e4:    2300        .#      MOVS     r3,#0
        0x080013e6:    e9cd2101    ...!    STRD     r2,r1,[sp,#4]
        0x080013ea:    9003        ..      STR      r0,[sp,#0xc]
        0x080013ec:    2201        ."      MOVS     r2,#1
        0x080013ee:    a13d        =.      ADR      r1,{pc}+0xf6 ; 0x80014e4
        0x080013f0:    483f        ?H      LDR      r0,[pc,#252] ; [0x80014f0] = 0x2000002c
        0x080013f2:    f000fe9f    ....    BL       Task_Create ; 0x8002134
        0x080013f6:    483f        ?H      LDR      r0,[pc,#252] ; [0x80014f4] = 0x8003089
        0x080013f8:    2164        d!      MOVS     r1,#0x64
        0x080013fa:    f04f32ff    O..2    MOV      r2,#0xffffffff
        0x080013fe:    2300        .#      MOVS     r3,#0
        0x08001400:    e9cd3200    ...2    STRD     r3,r2,[sp,#0]
        0x08001404:    e9cd1002    ....    STRD     r1,r0,[sp,#8]
        0x08001408:    0c13        ..      LSRS     r3,r2,#16
        0x0800140a:    2200        ."      MOVS     r2,#0
        0x0800140c:    a13a        :.      ADR      r1,{pc}+0xec ; 0x80014f8
        0x0800140e:    483f        ?H      LDR      r0,[pc,#252] ; [0x800150c] = 0x20000044
        0x08001410:    f000fe90    ....    BL       Task_Create ; 0x8002134
        0x08001414:    f000fe22    ..".    BL       Task_Creat_Init ; 0x800205c
        0x08001418:    4831        1H      LDR      r0,[pc,#196] ; [0x80014e0] = 0x8000b4b
        0x0800141a:    f04f31ff    O..1    MOV      r1,#0xffffffff
        0x0800141e:    2300        .#      MOVS     r3,#0
        0x08001420:    2201        ."      MOVS     r2,#1
        0x08001422:    e9cd1000    ....    STRD     r1,r0,[sp,#0]
        0x08001426:    4619        .F      MOV      r1,r3
        0x08001428:    4839        9H      LDR      r0,[pc,#228] ; [0x8001510] = 0x20000046
        0x0800142a:    f000fb9d    ....    BL       Soft_Timer_Creat ; 0x8001b68
        0x0800142e:    2400        .$      MOVS     r4,#0
        0x08001430:    e030        0.      B        0x8001494 ; RTOS_Init + 216
        0x08001432:    eb040044    ..D.    ADD      r0,r4,r4,LSL #1
        0x08001436:    eb0000c4    ....    ADD      r0,r0,r4,LSL #3
        0x0800143a:    4936        6I      LDR      r1,[pc,#216] ; [0x8001514] = 0x200000bc
        0x0800143c:    f8510020    Q. .    LDR      r0,[r1,r0,LSL #2]
        0x08001440:    8004        ..      STRH     r4,[r0,#0]
        0x08001442:    eb040044    ..D.    ADD      r0,r4,r4,LSL #1
        0x08001446:    eb0000c4    ....    ADD      r0,r0,r4,LSL #3
        0x0800144a:    eb010080    ....    ADD      r0,r1,r0,LSL #2
        0x0800144e:    6981        .i      LDR      r1,[r0,#0x18]
        0x08001450:    eb040044    ..D.    ADD      r0,r4,r4,LSL #1
        0x08001454:    eb0000c4    ....    ADD      r0,r0,r4,LSL #3
        0x08001458:    4a2e        .J      LDR      r2,[pc,#184] ; [0x8001514] = 0x200000bc
        0x0800145a:    eb020080    ....    ADD      r0,r2,r0,LSL #2
        0x0800145e:    8b80        ..      LDRH     r0,[r0,#0x1c]
        0x08001460:    eb010080    ....    ADD      r0,r1,r0,LSL #2
        0x08001464:    3840        @8      SUBS     r0,r0,#0x40
        0x08001466:    492c        ,I      LDR      r1,[pc,#176] ; [0x8001518] = 0x20000198
        0x08001468:    f8410024    A.$.    STR      r0,[r1,r4,LSL #2]
        0x0800146c:    eb040044    ..D.    ADD      r0,r4,r4,LSL #1
        0x08001470:    eb0000c4    ....    ADD      r0,r0,r4,LSL #3
        0x08001474:    4611        .F      MOV      r1,r2
        0x08001476:    eb010080    ....    ADD      r0,r1,r0,LSL #2
        0x0800147a:    6a00        .j      LDR      r0,[r0,#0x20]
        0x0800147c:    4926        &I      LDR      r1,[pc,#152] ; [0x8001518] = 0x20000198
        0x0800147e:    f8511024    Q.$.    LDR      r1,[r1,r4,LSL #2]
        0x08001482:    6388        .c      STR      r0,[r1,#0x38]
        0x08001484:    f04f7080    O..p    MOV      r0,#0x1000000
        0x08001488:    4923        #I      LDR      r1,[pc,#140] ; [0x8001518] = 0x20000198
        0x0800148a:    f8511024    Q.$.    LDR      r1,[r1,r4,LSL #2]
        0x0800148e:    63c8        .c      STR      r0,[r1,#0x3c]
        0x08001490:    1c60        `.      ADDS     r0,r4,#1
        0x08001492:    b284        ..      UXTH     r4,r0
        0x08001494:    2c05        .,      CMP      r4,#5
        0x08001496:    dbcc        ..      BLT      0x8001432 ; RTOS_Init + 118
        0x08001498:    f000ff3e    ..>.    BL       Task_list_init ; 0x8002318
        0x0800149c:    f000fbda    ....    BL       Softimer_List_init ; 0x8001c54
        0x080014a0:    f7fffa6c    ..l.    BL       Disable_Interrupt ; 0x800097c
        0x080014a4:    f7fffd5a    ..Z.    BL       Pend_Schedule ; 0x8000f5c
        0x080014a8:    f001fb5c    ..\.    BL       miniRTOS_Show_Vision ; 0x8002b64
        0x080014ac:    480b        .H      LDR      r0,[pc,#44] ; [0x80014dc] = 0x2000002e
        0x080014ae:    8800        ..      LDRH     r0,[r0,#0]
        0x080014b0:    491a        .I      LDR      r1,[pc,#104] ; [0x800151c] = 0x20000034
        0x080014b2:    6008        .`      STR      r0,[r1,#0]
        0x080014b4:    4918        .I      LDR      r1,[pc,#96] ; [0x8001518] = 0x20000198
        0x080014b6:    4a19        .J      LDR      r2,[pc,#100] ; [0x800151c] = 0x20000034
        0x080014b8:    6812        .h      LDR      r2,[r2,#0]
        0x080014ba:    f8511022    Q.".    LDR      r1,[r1,r2,LSL #2]
        0x080014be:    f1010040    ..@.    ADD      r0,r1,#0x40
        0x080014c2:    f7fefe20    .. .    BL       __set_PSP ; 0x8000106
        0x080014c6:    f001fb23    ..#.    BL       miniRTOS_Init ; 0x8002b10
        0x080014ca:    bd1f        ..      POP      {r0-r4,pc}
    $d
        0x080014cc:    08001fa1    ....    DCD    134225825
        0x080014d0:    72617473    star    DCD    1918989427
        0x080014d4:    61745f74    t_ta    DCD    1635016564
        0x080014d8:    00006b73    sk..    DCD    27507
        0x080014dc:    2000002e    ...     DCD    536870958
        0x080014e0:    08000b4b    K...    DCD    134220619
        0x080014e4:    656c6449    Idle    DCD    1701602377
        0x080014e8:    7361745f    _tas    DCD    1935766623
        0x080014ec:    0000006b    k...    DCD    107
        0x080014f0:    2000002c    ,..     DCD    536870956
        0x080014f4:    08003089    .0..    DCD    134230153
        0x080014f8:    656d6974    time    DCD    1701669236
        0x080014fc:    75675f72    r_gu    DCD    1969708914
        0x08001500:    5f647261    ard_    DCD    1600418401
        0x08001504:    6b736174    task    DCD    1802723700
        0x08001508:    00000000    ....    DCD    0
        0x0800150c:    20000044    D..     DCD    536870980
        0x08001510:    20000046    F..     DCD    536870982
        0x08001514:    200000bc    ...     DCD    536871100
        0x08001518:    20000198    ...     DCD    536871320
        0x0800151c:    20000034    4..     DCD    536870964
    $t
    i.RTOS_Tick_IRQ
    RTOS_Tick_IRQ
        0x08001520:    b510        ..      PUSH     {r4,lr}
        0x08001522:    f7fffa2f    ../.    BL       Enter_Critical ; 0x8000984
        0x08001526:    4604        .F      MOV      r4,r0
        0x08001528:    484d        MH      LDR      r0,[pc,#308] ; [0x8001660] = 0x20000030
        0x0800152a:    6800        .h      LDR      r0,[r0,#0]
        0x0800152c:    1c40        @.      ADDS     r0,r0,#1
        0x0800152e:    494c        LI      LDR      r1,[pc,#304] ; [0x8001660] = 0x20000030
        0x08001530:    6008        .`      STR      r0,[r1,#0]
        0x08001532:    484c        LH      LDR      r0,[pc,#304] ; [0x8001664] = 0x20000034
        0x08001534:    6800        .h      LDR      r0,[r0,#0]
        0x08001536:    eb000140    ..@.    ADD      r1,r0,r0,LSL #1
        0x0800153a:    eb0100c0    ....    ADD      r0,r1,r0,LSL #3
        0x0800153e:    494a        JI      LDR      r1,[pc,#296] ; [0x8001668] = 0x200000bc
        0x08001540:    eb010080    ....    ADD      r0,r1,r0,LSL #2
        0x08001544:    6900        .i      LDR      r0,[r0,#0x10]
        0x08001546:    4946        FI      LDR      r1,[pc,#280] ; [0x8001660] = 0x20000030
        0x08001548:    6809        .h      LDR      r1,[r1,#0]
        0x0800154a:    4288        .B      CMP      r0,r1
        0x0800154c:    d24b        K.      BCS      0x80015e6 ; RTOS_Tick_IRQ + 198
        0x0800154e:    4845        EH      LDR      r0,[pc,#276] ; [0x8001664] = 0x20000034
        0x08001550:    6800        .h      LDR      r0,[r0,#0]
        0x08001552:    eb000140    ..@.    ADD      r1,r0,r0,LSL #1
        0x08001556:    eb0100c0    ....    ADD      r0,r1,r0,LSL #3
        0x0800155a:    4943        CI      LDR      r1,[pc,#268] ; [0x8001668] = 0x200000bc
        0x0800155c:    eb010080    ....    ADD      r0,r1,r0,LSL #2
        0x08001560:    7a00        .z      LDRB     r0,[r0,#8]
        0x08001562:    2801        .(      CMP      r0,#1
        0x08001564:    d13f        ?.      BNE      0x80015e6 ; RTOS_Tick_IRQ + 198
        0x08001566:    483f        ?H      LDR      r0,[pc,#252] ; [0x8001664] = 0x20000034
        0x08001568:    6800        .h      LDR      r0,[r0,#0]
        0x0800156a:    eb000140    ..@.    ADD      r1,r0,r0,LSL #1
        0x0800156e:    eb0100c0    ....    ADD      r0,r1,r0,LSL #3
        0x08001572:    493d        =I      LDR      r1,[pc,#244] ; [0x8001668] = 0x200000bc
        0x08001574:    eb010080    ....    ADD      r0,r1,r0,LSL #2
        0x08001578:    6a80        .j      LDR      r0,[r0,#0x28]
        0x0800157a:    8940        @.      LDRH     r0,[r0,#0xa]
        0x0800157c:    4939        9I      LDR      r1,[pc,#228] ; [0x8001664] = 0x20000034
        0x0800157e:    6809        .h      LDR      r1,[r1,#0]
        0x08001580:    eb010241    ..A.    ADD      r2,r1,r1,LSL #1
        0x08001584:    eb0201c1    ....    ADD      r1,r2,r1,LSL #3
        0x08001588:    4a37        7J      LDR      r2,[pc,#220] ; [0x8001668] = 0x200000bc
        0x0800158a:    eb020181    ....    ADD      r1,r2,r1,LSL #2
        0x0800158e:    8949        I.      LDRH     r1,[r1,#0xa]
        0x08001590:    4288        .B      CMP      r0,r1
        0x08001592:    d128        (.      BNE      0x80015e6 ; RTOS_Tick_IRQ + 198
        0x08001594:    4833        3H      LDR      r0,[pc,#204] ; [0x8001664] = 0x20000034
        0x08001596:    6800        .h      LDR      r0,[r0,#0]
        0x08001598:    eb000140    ..@.    ADD      r1,r0,r0,LSL #1
        0x0800159c:    eb0100c0    ....    ADD      r0,r1,r0,LSL #3
        0x080015a0:    4611        .F      MOV      r1,r2
        0x080015a2:    f8510020    Q. .    LDR      r0,[r1,r0,LSL #2]
        0x080015a6:    8800        ..      LDRH     r0,[r0,#0]
        0x080015a8:    4930        0I      LDR      r1,[pc,#192] ; [0x800166c] = 0x2000002e
        0x080015aa:    8809        ..      LDRH     r1,[r1,#0]
        0x080015ac:    4288        .B      CMP      r0,r1
        0x080015ae:    d01a        ..      BEQ      0x80015e6 ; RTOS_Tick_IRQ + 198
        0x080015b0:    482c        ,H      LDR      r0,[pc,#176] ; [0x8001664] = 0x20000034
        0x080015b2:    6800        .h      LDR      r0,[r0,#0]
        0x080015b4:    eb000140    ..@.    ADD      r1,r0,r0,LSL #1
        0x080015b8:    eb0100c0    ....    ADD      r0,r1,r0,LSL #3
        0x080015bc:    4611        .F      MOV      r1,r2
        0x080015be:    f8510020    Q. .    LDR      r0,[r1,r0,LSL #2]
        0x080015c2:    8800        ..      LDRH     r0,[r0,#0]
        0x080015c4:    492a        *I      LDR      r1,[pc,#168] ; [0x8001670] = 0x2000002c
        0x080015c6:    8809        ..      LDRH     r1,[r1,#0]
        0x080015c8:    4288        .B      CMP      r0,r1
        0x080015ca:    d00c        ..      BEQ      0x80015e6 ; RTOS_Tick_IRQ + 198
        0x080015cc:    4825        %H      LDR      r0,[pc,#148] ; [0x8001664] = 0x20000034
        0x080015ce:    6800        .h      LDR      r0,[r0,#0]
        0x080015d0:    eb000240    ..@.    ADD      r2,r0,r0,LSL #1
        0x080015d4:    eb0200c0    ....    ADD      r0,r2,r0,LSL #3
        0x080015d8:    4a23        #J      LDR      r2,[pc,#140] ; [0x8001668] = 0x200000bc
        0x080015da:    eb020180    ....    ADD      r1,r2,r0,LSL #2
        0x080015de:    2200        ."      MOVS     r2,#0
        0x080015e0:    2001        .       MOVS     r0,#1
        0x080015e2:    f7fffb8f    ....    BL       List_insert ; 0x8000d04
        0x080015e6:    4823        #H      LDR      r0,[pc,#140] ; [0x8001674] = 0x20000024
        0x080015e8:    6800        .h      LDR      r0,[r0,#0]
        0x080015ea:    68c0        .h      LDR      r0,[r0,#0xc]
        0x080015ec:    491c        .I      LDR      r1,[pc,#112] ; [0x8001660] = 0x20000030
        0x080015ee:    6809        .h      LDR      r1,[r1,#0]
        0x080015f0:    4288        .B      CMP      r0,r1
        0x080015f2:    d212        ..      BCS      0x800161a ; RTOS_Tick_IRQ + 250
        0x080015f4:    2001        .       MOVS     r0,#1
        0x080015f6:    491f        .I      LDR      r1,[pc,#124] ; [0x8001674] = 0x20000024
        0x080015f8:    6809        .h      LDR      r1,[r1,#0]
        0x080015fa:    7208        .r      STRB     r0,[r1,#8]
        0x080015fc:    2201        ."      MOVS     r2,#1
        0x080015fe:    481d        .H      LDR      r0,[pc,#116] ; [0x8001674] = 0x20000024
        0x08001600:    6801        .h      LDR      r1,[r0,#0]
        0x08001602:    4610        .F      MOV      r0,r2
        0x08001604:    f7fffb7e    ..~.    BL       List_insert ; 0x8000d04
        0x08001608:    481a        .H      LDR      r0,[pc,#104] ; [0x8001674] = 0x20000024
        0x0800160a:    6800        .h      LDR      r0,[r0,#0]
        0x0800160c:    6a40        @j      LDR      r0,[r0,#0x24]
        0x0800160e:    b120         .      CBZ      r0,0x800161a ; RTOS_Tick_IRQ + 250
        0x08001610:    4818        .H      LDR      r0,[pc,#96] ; [0x8001674] = 0x20000024
        0x08001612:    6800        .h      LDR      r0,[r0,#0]
        0x08001614:    6a40        @j      LDR      r0,[r0,#0x24]
        0x08001616:    4917        .I      LDR      r1,[pc,#92] ; [0x8001674] = 0x20000024
        0x08001618:    6008        .`      STR      r0,[r1,#0]
        0x0800161a:    4817        .H      LDR      r0,[pc,#92] ; [0x8001678] = 0x20000040
        0x0800161c:    6800        .h      LDR      r0,[r0,#0]
        0x0800161e:    6880        .h      LDR      r0,[r0,#8]
        0x08001620:    490f        .I      LDR      r1,[pc,#60] ; [0x8001660] = 0x20000030
        0x08001622:    6809        .h      LDR      r1,[r1,#0]
        0x08001624:    4288        .B      CMP      r0,r1
        0x08001626:    d215        ..      BCS      0x8001654 ; RTOS_Tick_IRQ + 308
        0x08001628:    2001        .       MOVS     r0,#1
        0x0800162a:    4913        .I      LDR      r1,[pc,#76] ; [0x8001678] = 0x20000040
        0x0800162c:    6809        .h      LDR      r1,[r1,#0]
        0x0800162e:    7108        .q      STRB     r0,[r1,#4]
        0x08001630:    4811        .H      LDR      r0,[pc,#68] ; [0x8001678] = 0x20000040
        0x08001632:    6800        .h      LDR      r0,[r0,#0]
        0x08001634:    7940        @y      LDRB     r0,[r0,#5]
        0x08001636:    2801        .(      CMP      r0,#1
        0x08001638:    d103        ..      BNE      0x8001642 ; RTOS_Tick_IRQ + 290
        0x0800163a:    4810        .H      LDR      r0,[pc,#64] ; [0x800167c] = 0x20000044
        0x0800163c:    8800        ..      LDRH     r0,[r0,#0]
        0x0800163e:    f000f82d    ..-.    BL       Release_Task ; 0x800169c
        0x08001642:    480d        .H      LDR      r0,[pc,#52] ; [0x8001678] = 0x20000040
        0x08001644:    6800        .h      LDR      r0,[r0,#0]
        0x08001646:    6980        .i      LDR      r0,[r0,#0x18]
        0x08001648:    b120         .      CBZ      r0,0x8001654 ; RTOS_Tick_IRQ + 308
        0x0800164a:    480b        .H      LDR      r0,[pc,#44] ; [0x8001678] = 0x20000040
        0x0800164c:    6800        .h      LDR      r0,[r0,#0]
        0x0800164e:    6980        .i      LDR      r0,[r0,#0x18]
        0x08001650:    4909        .I      LDR      r1,[pc,#36] ; [0x8001678] = 0x20000040
        0x08001652:    6008        .`      STR      r0,[r1,#0]
        0x08001654:    f7fffafa    ....    BL       Launch_Task_Schedule ; 0x8000c4c
        0x08001658:    4620         F      MOV      r0,r4
        0x0800165a:    f7fff99d    ....    BL       Exit_Critical ; 0x8000998
        0x0800165e:    bd10        ..      POP      {r4,pc}
    $d
        0x08001660:    20000030    0..     DCD    536870960
        0x08001664:    20000034    4..     DCD    536870964
        0x08001668:    200000bc    ...     DCD    536871100
        0x0800166c:    2000002e    ...     DCD    536870958
        0x08001670:    2000002c    ,..     DCD    536870956
        0x08001674:    20000024    $..     DCD    536870948
        0x08001678:    20000040    @..     DCD    536870976
        0x0800167c:    20000044    D..     DCD    536870980
    $t
    i.Release_Schedule
    Release_Schedule
        0x08001680:    b510        ..      PUSH     {r4,lr}
        0x08001682:    f7fff97f    ....    BL       Enter_Critical ; 0x8000984
        0x08001686:    4604        .F      MOV      r4,r0
        0x08001688:    2000        .       MOVS     r0,#0
        0x0800168a:    4903        .I      LDR      r1,[pc,#12] ; [0x8001698] = 0x2000003c
        0x0800168c:    7008        .p      STRB     r0,[r1,#0]
        0x0800168e:    4620         F      MOV      r0,r4
        0x08001690:    f7fff982    ....    BL       Exit_Critical ; 0x8000998
        0x08001694:    bd10        ..      POP      {r4,pc}
    $d
        0x08001696:    0000        ..      DCW    0
        0x08001698:    2000003c    <..     DCD    536870972
    $t
    i.Release_Task
    Release_Task
        0x0800169c:    b570        p.      PUSH     {r4-r6,lr}
        0x0800169e:    4604        .F      MOV      r4,r0
        0x080016a0:    f7fff970    ..p.    BL       Enter_Critical ; 0x8000984
        0x080016a4:    4605        .F      MOV      r5,r0
        0x080016a6:    2001        .       MOVS     r0,#1
        0x080016a8:    eb040144    ..D.    ADD      r1,r4,r4,LSL #1
        0x080016ac:    eb0101c4    ....    ADD      r1,r1,r4,LSL #3
        0x080016b0:    4a0d        .J      LDR      r2,[pc,#52] ; [0x80016e8] = 0x200000bc
        0x080016b2:    eb020181    ....    ADD      r1,r2,r1,LSL #2
        0x080016b6:    7248        Hr      STRB     r0,[r1,#9]
        0x080016b8:    eb040144    ..D.    ADD      r1,r4,r4,LSL #1
        0x080016bc:    eb0101c4    ....    ADD      r1,r1,r4,LSL #3
        0x080016c0:    eb020181    ....    ADD      r1,r2,r1,LSL #2
        0x080016c4:    7208        .r      STRB     r0,[r1,#8]
        0x080016c6:    eb040044    ..D.    ADD      r0,r4,r4,LSL #1
        0x080016ca:    eb0000c4    ....    ADD      r0,r0,r4,LSL #3
        0x080016ce:    eb020180    ....    ADD      r1,r2,r0,LSL #2
        0x080016d2:    2201        ."      MOVS     r2,#1
        0x080016d4:    4610        .F      MOV      r0,r2
        0x080016d6:    f7fffb15    ....    BL       List_insert ; 0x8000d04
        0x080016da:    f7fffab7    ....    BL       Launch_Task_Schedule ; 0x8000c4c
        0x080016de:    4628        (F      MOV      r0,r5
        0x080016e0:    f7fff95a    ..Z.    BL       Exit_Critical ; 0x8000998
        0x080016e4:    bd70        p.      POP      {r4-r6,pc}
    $d
        0x080016e6:    0000        ..      DCW    0
        0x080016e8:    200000bc    ...     DCD    536871100
    $t
    i.Semaphore_Creat
    Semaphore_Creat
        0x080016ec:    2803        .(      CMP      r0,#3
        0x080016ee:    d101        ..      BNE      0x80016f4 ; Semaphore_Creat + 8
        0x080016f0:    600a        .`      STR      r2,[r1,#0]
        0x080016f2:    e005        ..      B        0x8001700 ; Semaphore_Creat + 20
        0x080016f4:    b112        ..      CBZ      r2,0x80016fc ; Semaphore_Creat + 16
        0x080016f6:    2301        .#      MOVS     r3,#1
        0x080016f8:    600b        .`      STR      r3,[r1,#0]
        0x080016fa:    e001        ..      B        0x8001700 ; Semaphore_Creat + 20
        0x080016fc:    2300        .#      MOVS     r3,#0
        0x080016fe:    600b        .`      STR      r3,[r1,#0]
        0x08001700:    4770        pG      BX       lr
        0x08001702:    0000        ..      MOVS     r0,r0
    i.Semaphore_Give
    Semaphore_Give
        0x08001704:    e92d41f0    -..A    PUSH     {r4-r8,lr}
        0x08001708:    4607        .F      MOV      r7,r0
        0x0800170a:    460d        .F      MOV      r5,r1
        0x0800170c:    484a        JH      LDR      r0,[pc,#296] ; [0x8001838] = 0x2000002c
        0x0800170e:    8800        ..      LDRH     r0,[r0,#0]
        0x08001710:    eb000140    ..@.    ADD      r1,r0,r0,LSL #1
        0x08001714:    eb0100c0    ....    ADD      r0,r1,r0,LSL #3
        0x08001718:    4948        HI      LDR      r1,[pc,#288] ; [0x800183c] = 0x200000bc
        0x0800171a:    eb010680    ....    ADD      r6,r1,r0,LSL #2
        0x0800171e:    f7fff931    ..1.    BL       Enter_Critical ; 0x8000984
        0x08001722:    4680        .F      MOV      r8,r0
        0x08001724:    2f03        ./      CMP      r7,#3
        0x08001726:    d103        ..      BNE      0x8001730 ; Semaphore_Give + 44
        0x08001728:    6828        (h      LDR      r0,[r5,#0]
        0x0800172a:    1c40        @.      ADDS     r0,r0,#1
        0x0800172c:    6028        (`      STR      r0,[r5,#0]
        0x0800172e:    e001        ..      B        0x8001734 ; Semaphore_Give + 48
        0x08001730:    2001        .       MOVS     r0,#1
        0x08001732:    6028        (`      STR      r0,[r5,#0]
        0x08001734:    2f01        ./      CMP      r7,#1
        0x08001736:    d135        5.      BNE      0x80017a4 ; Semaphore_Give + 160
        0x08001738:    2400        .$      MOVS     r4,#0
        0x0800173a:    e030        0.      B        0x800179e ; Semaphore_Give + 154
        0x0800173c:    f1050008    ....    ADD      r0,r5,#8
        0x08001740:    5d00        .]      LDRB     r0,[r0,r4]
        0x08001742:    2801        .(      CMP      r0,#1
        0x08001744:    d129        ).      BNE      0x800179a ; Semaphore_Give + 150
        0x08001746:    eb040044    ..D.    ADD      r0,r4,r4,LSL #1
        0x0800174a:    eb0000c4    ....    ADD      r0,r0,r4,LSL #3
        0x0800174e:    493b        ;I      LDR      r1,[pc,#236] ; [0x800183c] = 0x200000bc
        0x08001750:    f8510020    Q. .    LDR      r0,[r1,r0,LSL #2]
        0x08001754:    8800        ..      LDRH     r0,[r0,#0]
        0x08001756:    493a        :I      LDR      r1,[pc,#232] ; [0x8001840] = 0x20000044
        0x08001758:    8809        ..      LDRH     r1,[r1,#0]
        0x0800175a:    4288        .B      CMP      r0,r1
        0x0800175c:    d01d        ..      BEQ      0x800179a ; Semaphore_Give + 150
        0x0800175e:    2100        .!      MOVS     r1,#0
        0x08001760:    f1050008    ....    ADD      r0,r5,#8
        0x08001764:    5501        .U      STRB     r1,[r0,r4]
        0x08001766:    2001        .       MOVS     r0,#1
        0x08001768:    eb040144    ..D.    ADD      r1,r4,r4,LSL #1
        0x0800176c:    eb0101c4    ....    ADD      r1,r1,r4,LSL #3
        0x08001770:    4a32        2J      LDR      r2,[pc,#200] ; [0x800183c] = 0x200000bc
        0x08001772:    eb020181    ....    ADD      r1,r2,r1,LSL #2
        0x08001776:    7208        .r      STRB     r0,[r1,#8]
        0x08001778:    eb040144    ..D.    ADD      r1,r4,r4,LSL #1
        0x0800177c:    eb0101c4    ....    ADD      r1,r1,r4,LSL #3
        0x08001780:    eb020181    ....    ADD      r1,r2,r1,LSL #2
        0x08001784:    7248        Hr      STRB     r0,[r1,#9]
        0x08001786:    eb040044    ..D.    ADD      r0,r4,r4,LSL #1
        0x0800178a:    eb0000c4    ....    ADD      r0,r0,r4,LSL #3
        0x0800178e:    eb020180    ....    ADD      r1,r2,r0,LSL #2
        0x08001792:    2201        ."      MOVS     r2,#1
        0x08001794:    4610        .F      MOV      r0,r2
        0x08001796:    f7fffab5    ....    BL       List_insert ; 0x8000d04
        0x0800179a:    1c60        `.      ADDS     r0,r4,#1
        0x0800179c:    b284        ..      UXTH     r4,r0
        0x0800179e:    2c05        .,      CMP      r4,#5
        0x080017a0:    dbcc        ..      BLT      0x800173c ; Semaphore_Give + 56
        0x080017a2:    e041        A.      B        0x8001828 ; Semaphore_Give + 292
        0x080017a4:    2400        .$      MOVS     r4,#0
        0x080017a6:    e024        $.      B        0x80017f2 ; Semaphore_Give + 238
        0x080017a8:    f1050008    ....    ADD      r0,r5,#8
        0x080017ac:    5d00        .]      LDRB     r0,[r0,r4]
        0x080017ae:    2801        .(      CMP      r0,#1
        0x080017b0:    d11d        ..      BNE      0x80017ee ; Semaphore_Give + 234
        0x080017b2:    eb040044    ..D.    ADD      r0,r4,r4,LSL #1
        0x080017b6:    eb0000c4    ....    ADD      r0,r0,r4,LSL #3
        0x080017ba:    4920         I      LDR      r1,[pc,#128] ; [0x800183c] = 0x200000bc
        0x080017bc:    f8510020    Q. .    LDR      r0,[r1,r0,LSL #2]
        0x080017c0:    8800        ..      LDRH     r0,[r0,#0]
        0x080017c2:    491f        .I      LDR      r1,[pc,#124] ; [0x8001840] = 0x20000044
        0x080017c4:    8809        ..      LDRH     r1,[r1,#0]
        0x080017c6:    4288        .B      CMP      r0,r1
        0x080017c8:    d011        ..      BEQ      0x80017ee ; Semaphore_Give + 234
        0x080017ca:    8970        p.      LDRH     r0,[r6,#0xa]
        0x080017cc:    eb040144    ..D.    ADD      r1,r4,r4,LSL #1
        0x080017d0:    eb0101c4    ....    ADD      r1,r1,r4,LSL #3
        0x080017d4:    4a19        .J      LDR      r2,[pc,#100] ; [0x800183c] = 0x200000bc
        0x080017d6:    eb020181    ....    ADD      r1,r2,r1,LSL #2
        0x080017da:    8949        I.      LDRH     r1,[r1,#0xa]
        0x080017dc:    4288        .B      CMP      r0,r1
        0x080017de:    da06        ..      BGE      0x80017ee ; Semaphore_Give + 234
        0x080017e0:    eb040044    ..D.    ADD      r0,r4,r4,LSL #1
        0x080017e4:    eb0000c4    ....    ADD      r0,r0,r4,LSL #3
        0x080017e8:    4611        .F      MOV      r1,r2
        0x080017ea:    eb010680    ....    ADD      r6,r1,r0,LSL #2
        0x080017ee:    1c60        `.      ADDS     r0,r4,#1
        0x080017f0:    b284        ..      UXTH     r4,r0
        0x080017f2:    2c05        .,      CMP      r4,#5
        0x080017f4:    dbd8        ..      BLT      0x80017a8 ; Semaphore_Give + 164
        0x080017f6:    4810        .H      LDR      r0,[pc,#64] ; [0x8001838] = 0x2000002c
        0x080017f8:    8800        ..      LDRH     r0,[r0,#0]
        0x080017fa:    eb000140    ..@.    ADD      r1,r0,r0,LSL #1
        0x080017fe:    eb0100c0    ....    ADD      r0,r1,r0,LSL #3
        0x08001802:    490e        .I      LDR      r1,[pc,#56] ; [0x800183c] = 0x200000bc
        0x08001804:    eb010080    ....    ADD      r0,r1,r0,LSL #2
        0x08001808:    42b0        .B      CMP      r0,r6
        0x0800180a:    d00d        ..      BEQ      0x8001828 ; Semaphore_Give + 292
        0x0800180c:    2100        .!      MOVS     r1,#0
        0x0800180e:    6830        0h      LDR      r0,[r6,#0]
        0x08001810:    8802        ..      LDRH     r2,[r0,#0]
        0x08001812:    f1050008    ....    ADD      r0,r5,#8
        0x08001816:    5481        .T      STRB     r1,[r0,r2]
        0x08001818:    2001        .       MOVS     r0,#1
        0x0800181a:    7230        0r      STRB     r0,[r6,#8]
        0x0800181c:    7270        pr      STRB     r0,[r6,#9]
        0x0800181e:    2201        ."      MOVS     r2,#1
        0x08001820:    4631        1F      MOV      r1,r6
        0x08001822:    4610        .F      MOV      r0,r2
        0x08001824:    f7fffa6e    ..n.    BL       List_insert ; 0x8000d04
        0x08001828:    f7fffa10    ....    BL       Launch_Task_Schedule ; 0x8000c4c
        0x0800182c:    4640        @F      MOV      r0,r8
        0x0800182e:    f7fff8b3    ....    BL       Exit_Critical ; 0x8000998
        0x08001832:    e8bd81f0    ....    POP      {r4-r8,pc}
    $d
        0x08001836:    0000        ..      DCW    0
        0x08001838:    2000002c    ,..     DCD    536870956
        0x0800183c:    200000bc    ...     DCD    536871100
        0x08001840:    20000044    D..     DCD    536870980
    $t
    i.Semaphore_Take
    Semaphore_Take
        0x08001844:    e92d47f0    -..G    PUSH     {r4-r10,lr}
        0x08001848:    4605        .F      MOV      r5,r0
        0x0800184a:    460c        .F      MOV      r4,r1
        0x0800184c:    4616        .F      MOV      r6,r2
        0x0800184e:    461f        .F      MOV      r7,r3
        0x08001850:    f04f0800    O...    MOV      r8,#0
        0x08001854:    f7fff896    ....    BL       Enter_Critical ; 0x8000984
        0x08001858:    4681        .F      MOV      r9,r0
        0x0800185a:    6820         h      LDR      r0,[r4,#0]
        0x0800185c:    b1d0        ..      CBZ      r0,0x8001894 ; Semaphore_Take + 80
        0x0800185e:    2d03        .-      CMP      r5,#3
        0x08001860:    d103        ..      BNE      0x800186a ; Semaphore_Take + 38
        0x08001862:    6820         h      LDR      r0,[r4,#0]
        0x08001864:    1e40        @.      SUBS     r0,r0,#1
        0x08001866:    6020         `      STR      r0,[r4,#0]
        0x08001868:    e001        ..      B        0x800186e ; Semaphore_Take + 42
        0x0800186a:    2000        .       MOVS     r0,#0
        0x0800186c:    6020         `      STR      r0,[r4,#0]
        0x0800186e:    f04f0801    O...    MOV      r8,#1
        0x08001872:    2f00        ./      CMP      r7,#0
        0x08001874:    d00d        ..      BEQ      0x8001892 ; Semaphore_Take + 78
        0x08001876:    484a        JH      LDR      r0,[pc,#296] ; [0x80019a0] = 0x20000034
        0x08001878:    6800        .h      LDR      r0,[r0,#0]
        0x0800187a:    80a0        ..      STRH     r0,[r4,#4]
        0x0800187c:    4848        HH      LDR      r0,[pc,#288] ; [0x80019a0] = 0x20000034
        0x0800187e:    6800        .h      LDR      r0,[r0,#0]
        0x08001880:    eb000140    ..@.    ADD      r1,r0,r0,LSL #1
        0x08001884:    eb0100c0    ....    ADD      r0,r1,r0,LSL #3
        0x08001888:    4946        FI      LDR      r1,[pc,#280] ; [0x80019a4] = 0x200000bc
        0x0800188a:    eb010080    ....    ADD      r0,r1,r0,LSL #2
        0x0800188e:    8940        @.      LDRH     r0,[r0,#0xa]
        0x08001890:    80e0        ..      STRH     r0,[r4,#6]
        0x08001892:    e07e        ~.      B        0x8001992 ; Semaphore_Take + 334
        0x08001894:    2f00        ./      CMP      r7,#0
        0x08001896:    d07a        z.      BEQ      0x800198e ; Semaphore_Take + 330
        0x08001898:    b916        ..      CBNZ     r6,0x80018a0 ; Semaphore_Take + 92
        0x0800189a:    f04f0800    O...    MOV      r8,#0
        0x0800189e:    e078        x.      B        0x8001992 ; Semaphore_Take + 334
        0x080018a0:    88a0        ..      LDRH     r0,[r4,#4]
        0x080018a2:    b318        ..      CBZ      r0,0x80018ec ; Semaphore_Take + 168
        0x080018a4:    88e0        ..      LDRH     r0,[r4,#6]
        0x080018a6:    b308        ..      CBZ      r0,0x80018ec ; Semaphore_Take + 168
        0x080018a8:    483d        =H      LDR      r0,[pc,#244] ; [0x80019a0] = 0x20000034
        0x080018aa:    6800        .h      LDR      r0,[r0,#0]
        0x080018ac:    eb000140    ..@.    ADD      r1,r0,r0,LSL #1
        0x080018b0:    eb0100c0    ....    ADD      r0,r1,r0,LSL #3
        0x080018b4:    493b        ;I      LDR      r1,[pc,#236] ; [0x80019a4] = 0x200000bc
        0x080018b6:    eb010080    ....    ADD      r0,r1,r0,LSL #2
        0x080018ba:    8940        @.      LDRH     r0,[r0,#0xa]
        0x080018bc:    88e1        ..      LDRH     r1,[r4,#6]
        0x080018be:    4288        .B      CMP      r0,r1
        0x080018c0:    dd14        ..      BLE      0x80018ec ; Semaphore_Take + 168
        0x080018c2:    2d02        .-      CMP      r5,#2
        0x080018c4:    d112        ..      BNE      0x80018ec ; Semaphore_Take + 168
        0x080018c6:    4836        6H      LDR      r0,[pc,#216] ; [0x80019a0] = 0x20000034
        0x080018c8:    6800        .h      LDR      r0,[r0,#0]
        0x080018ca:    eb000140    ..@.    ADD      r1,r0,r0,LSL #1
        0x080018ce:    eb0100c0    ....    ADD      r0,r1,r0,LSL #3
        0x080018d2:    4934        4I      LDR      r1,[pc,#208] ; [0x80019a4] = 0x200000bc
        0x080018d4:    eb010080    ....    ADD      r0,r1,r0,LSL #2
        0x080018d8:    8940        @.      LDRH     r0,[r0,#0xa]
        0x080018da:    88a1        ..      LDRH     r1,[r4,#4]
        0x080018dc:    eb010241    ..A.    ADD      r2,r1,r1,LSL #1
        0x080018e0:    eb0201c1    ....    ADD      r1,r2,r1,LSL #3
        0x080018e4:    4a2f        /J      LDR      r2,[pc,#188] ; [0x80019a4] = 0x200000bc
        0x080018e6:    eb020181    ....    ADD      r1,r2,r1,LSL #2
        0x080018ea:    8148        H.      STRH     r0,[r1,#0xa]
        0x080018ec:    2101        .!      MOVS     r1,#1
        0x080018ee:    f1040008    ....    ADD      r0,r4,#8
        0x080018f2:    4a2b        +J      LDR      r2,[pc,#172] ; [0x80019a0] = 0x20000034
        0x080018f4:    6812        .h      LDR      r2,[r2,#0]
        0x080018f6:    5481        .T      STRB     r1,[r0,r2]
        0x080018f8:    4648        HF      MOV      r0,r9
        0x080018fa:    f7fff84d    ..M.    BL       Exit_Critical ; 0x8000998
        0x080018fe:    4630        0F      MOV      r0,r6
        0x08001900:    f7fffd0c    ....    BL       RTOS_Delay ; 0x800131c
        0x08001904:    f7fff83e    ..>.    BL       Enter_Critical ; 0x8000984
        0x08001908:    4681        .F      MOV      r9,r0
        0x0800190a:    2100        .!      MOVS     r1,#0
        0x0800190c:    f1040008    ....    ADD      r0,r4,#8
        0x08001910:    4a23        #J      LDR      r2,[pc,#140] ; [0x80019a0] = 0x20000034
        0x08001912:    6812        .h      LDR      r2,[r2,#0]
        0x08001914:    5481        .T      STRB     r1,[r0,r2]
        0x08001916:    88a0        ..      LDRH     r0,[r4,#4]
        0x08001918:    b1d0        ..      CBZ      r0,0x8001950 ; Semaphore_Take + 268
        0x0800191a:    88e0        ..      LDRH     r0,[r4,#6]
        0x0800191c:    b1c0        ..      CBZ      r0,0x8001950 ; Semaphore_Take + 268
        0x0800191e:    4820         H      LDR      r0,[pc,#128] ; [0x80019a0] = 0x20000034
        0x08001920:    6800        .h      LDR      r0,[r0,#0]
        0x08001922:    eb000140    ..@.    ADD      r1,r0,r0,LSL #1
        0x08001926:    eb0100c0    ....    ADD      r0,r1,r0,LSL #3
        0x0800192a:    491e        .I      LDR      r1,[pc,#120] ; [0x80019a4] = 0x200000bc
        0x0800192c:    eb010080    ....    ADD      r0,r1,r0,LSL #2
        0x08001930:    8940        @.      LDRH     r0,[r0,#0xa]
        0x08001932:    88e1        ..      LDRH     r1,[r4,#6]
        0x08001934:    4288        .B      CMP      r0,r1
        0x08001936:    dd0b        ..      BLE      0x8001950 ; Semaphore_Take + 268
        0x08001938:    2d02        .-      CMP      r5,#2
        0x0800193a:    d109        ..      BNE      0x8001950 ; Semaphore_Take + 268
        0x0800193c:    88e0        ..      LDRH     r0,[r4,#6]
        0x0800193e:    88a1        ..      LDRH     r1,[r4,#4]
        0x08001940:    eb010241    ..A.    ADD      r2,r1,r1,LSL #1
        0x08001944:    eb0201c1    ....    ADD      r1,r2,r1,LSL #3
        0x08001948:    4a16        .J      LDR      r2,[pc,#88] ; [0x80019a4] = 0x200000bc
        0x0800194a:    eb020181    ....    ADD      r1,r2,r1,LSL #2
        0x0800194e:    8148        H.      STRH     r0,[r1,#0xa]
        0x08001950:    6820         h      LDR      r0,[r4,#0]
        0x08001952:    b1c8        ..      CBZ      r0,0x8001988 ; Semaphore_Take + 324
        0x08001954:    2d03        .-      CMP      r5,#3
        0x08001956:    d103        ..      BNE      0x8001960 ; Semaphore_Take + 284
        0x08001958:    6820         h      LDR      r0,[r4,#0]
        0x0800195a:    1e40        @.      SUBS     r0,r0,#1
        0x0800195c:    6020         `      STR      r0,[r4,#0]
        0x0800195e:    e001        ..      B        0x8001964 ; Semaphore_Take + 288
        0x08001960:    2000        .       MOVS     r0,#0
        0x08001962:    6020         `      STR      r0,[r4,#0]
        0x08001964:    f04f0801    O...    MOV      r8,#1
        0x08001968:    480d        .H      LDR      r0,[pc,#52] ; [0x80019a0] = 0x20000034
        0x0800196a:    6800        .h      LDR      r0,[r0,#0]
        0x0800196c:    80a0        ..      STRH     r0,[r4,#4]
        0x0800196e:    480c        .H      LDR      r0,[pc,#48] ; [0x80019a0] = 0x20000034
        0x08001970:    6800        .h      LDR      r0,[r0,#0]
        0x08001972:    eb000140    ..@.    ADD      r1,r0,r0,LSL #1
        0x08001976:    eb0100c0    ....    ADD      r0,r1,r0,LSL #3
        0x0800197a:    490a        .I      LDR      r1,[pc,#40] ; [0x80019a4] = 0x200000bc
        0x0800197c:    eb010080    ....    ADD      r0,r1,r0,LSL #2
        0x08001980:    8940        @.      LDRH     r0,[r0,#0xa]
        0x08001982:    80e0        ..      STRH     r0,[r4,#6]
        0x08001984:    e005        ..      B        0x8001992 ; Semaphore_Take + 334
        0x08001986:    e002        ..      B        0x800198e ; Semaphore_Take + 330
        0x08001988:    f04f0800    O...    MOV      r8,#0
        0x0800198c:    e001        ..      B        0x8001992 ; Semaphore_Take + 334
        0x0800198e:    f04f0800    O...    MOV      r8,#0
        0x08001992:    4648        HF      MOV      r0,r9
        0x08001994:    f7fff800    ....    BL       Exit_Critical ; 0x8000998
        0x08001998:    4640        @F      MOV      r0,r8
        0x0800199a:    e8bd87f0    ....    POP      {r4-r10,pc}
    $d
        0x0800199e:    0000        ..      DCW    0
        0x080019a0:    20000034    4..     DCD    536870964
        0x080019a4:    200000bc    ...     DCD    536871100
    $t
    i.SetSysClock
    SetSysClock
        0x080019a8:    b510        ..      PUSH     {r4,lr}
        0x080019aa:    f000f801    ....    BL       SetSysClockTo72 ; 0x80019b0
        0x080019ae:    bd10        ..      POP      {r4,pc}
    i.SetSysClockTo72
    SetSysClockTo72
        0x080019b0:    b50c        ..      PUSH     {r2,r3,lr}
        0x080019b2:    2000        .       MOVS     r0,#0
        0x080019b4:    9001        ..      STR      r0,[sp,#4]
        0x080019b6:    9000        ..      STR      r0,[sp,#0]
        0x080019b8:    4833        3H      LDR      r0,[pc,#204] ; [0x8001a88] = 0x40021000
        0x080019ba:    6800        .h      LDR      r0,[r0,#0]
        0x080019bc:    f4403080    @..0    ORR      r0,r0,#0x10000
        0x080019c0:    4931        1I      LDR      r1,[pc,#196] ; [0x8001a88] = 0x40021000
        0x080019c2:    6008        .`      STR      r0,[r1,#0]
        0x080019c4:    bf00        ..      NOP      
        0x080019c6:    4830        0H      LDR      r0,[pc,#192] ; [0x8001a88] = 0x40021000
        0x080019c8:    6800        .h      LDR      r0,[r0,#0]
        0x080019ca:    f4003000    ...0    AND      r0,r0,#0x20000
        0x080019ce:    9000        ..      STR      r0,[sp,#0]
        0x080019d0:    9801        ..      LDR      r0,[sp,#4]
        0x080019d2:    1c40        @.      ADDS     r0,r0,#1
        0x080019d4:    9001        ..      STR      r0,[sp,#4]
        0x080019d6:    9800        ..      LDR      r0,[sp,#0]
        0x080019d8:    b918        ..      CBNZ     r0,0x80019e2 ; SetSysClockTo72 + 50
        0x080019da:    9801        ..      LDR      r0,[sp,#4]
        0x080019dc:    f5b06fa0    ...o    CMP      r0,#0x500
        0x080019e0:    d1f1        ..      BNE      0x80019c6 ; SetSysClockTo72 + 22
        0x080019e2:    4829        )H      LDR      r0,[pc,#164] ; [0x8001a88] = 0x40021000
        0x080019e4:    6800        .h      LDR      r0,[r0,#0]
        0x080019e6:    f4003000    ...0    AND      r0,r0,#0x20000
        0x080019ea:    b110        ..      CBZ      r0,0x80019f2 ; SetSysClockTo72 + 66
        0x080019ec:    2001        .       MOVS     r0,#1
        0x080019ee:    9000        ..      STR      r0,[sp,#0]
        0x080019f0:    e001        ..      B        0x80019f6 ; SetSysClockTo72 + 70
        0x080019f2:    2000        .       MOVS     r0,#0
        0x080019f4:    9000        ..      STR      r0,[sp,#0]
        0x080019f6:    9800        ..      LDR      r0,[sp,#0]
        0x080019f8:    2801        .(      CMP      r0,#1
        0x080019fa:    d143        C.      BNE      0x8001a84 ; SetSysClockTo72 + 212
        0x080019fc:    4823        #H      LDR      r0,[pc,#140] ; [0x8001a8c] = 0x40022000
        0x080019fe:    6800        .h      LDR      r0,[r0,#0]
        0x08001a00:    f0400010    @...    ORR      r0,r0,#0x10
        0x08001a04:    4921        !I      LDR      r1,[pc,#132] ; [0x8001a8c] = 0x40022000
        0x08001a06:    6008        .`      STR      r0,[r1,#0]
        0x08001a08:    4608        .F      MOV      r0,r1
        0x08001a0a:    6800        .h      LDR      r0,[r0,#0]
        0x08001a0c:    f0200003     ...    BIC      r0,r0,#3
        0x08001a10:    6008        .`      STR      r0,[r1,#0]
        0x08001a12:    4608        .F      MOV      r0,r1
        0x08001a14:    6800        .h      LDR      r0,[r0,#0]
        0x08001a16:    f0400002    @...    ORR      r0,r0,#2
        0x08001a1a:    6008        .`      STR      r0,[r1,#0]
        0x08001a1c:    481a        .H      LDR      r0,[pc,#104] ; [0x8001a88] = 0x40021000
        0x08001a1e:    6840        @h      LDR      r0,[r0,#4]
        0x08001a20:    4919        .I      LDR      r1,[pc,#100] ; [0x8001a88] = 0x40021000
        0x08001a22:    6048        H`      STR      r0,[r1,#4]
        0x08001a24:    4608        .F      MOV      r0,r1
        0x08001a26:    6840        @h      LDR      r0,[r0,#4]
        0x08001a28:    6048        H`      STR      r0,[r1,#4]
        0x08001a2a:    4608        .F      MOV      r0,r1
        0x08001a2c:    6840        @h      LDR      r0,[r0,#4]
        0x08001a2e:    f4406080    @..`    ORR      r0,r0,#0x400
        0x08001a32:    6048        H`      STR      r0,[r1,#4]
        0x08001a34:    4608        .F      MOV      r0,r1
        0x08001a36:    6840        @h      LDR      r0,[r0,#4]
        0x08001a38:    f420107c     .|.    BIC      r0,r0,#0x3f0000
        0x08001a3c:    6048        H`      STR      r0,[r1,#4]
        0x08001a3e:    4608        .F      MOV      r0,r1
        0x08001a40:    6840        @h      LDR      r0,[r0,#4]
        0x08001a42:    f44010e8    @...    ORR      r0,r0,#0x1d0000
        0x08001a46:    6048        H`      STR      r0,[r1,#4]
        0x08001a48:    4608        .F      MOV      r0,r1
        0x08001a4a:    6800        .h      LDR      r0,[r0,#0]
        0x08001a4c:    f0407080    @..p    ORR      r0,r0,#0x1000000
        0x08001a50:    6008        .`      STR      r0,[r1,#0]
        0x08001a52:    bf00        ..      NOP      
        0x08001a54:    480c        .H      LDR      r0,[pc,#48] ; [0x8001a88] = 0x40021000
        0x08001a56:    6800        .h      LDR      r0,[r0,#0]
        0x08001a58:    f0007000    ...p    AND      r0,r0,#0x2000000
        0x08001a5c:    2800        .(      CMP      r0,#0
        0x08001a5e:    d0f9        ..      BEQ      0x8001a54 ; SetSysClockTo72 + 164
        0x08001a60:    4809        .H      LDR      r0,[pc,#36] ; [0x8001a88] = 0x40021000
        0x08001a62:    6840        @h      LDR      r0,[r0,#4]
        0x08001a64:    f0200003     ...    BIC      r0,r0,#3
        0x08001a68:    4907        .I      LDR      r1,[pc,#28] ; [0x8001a88] = 0x40021000
        0x08001a6a:    6048        H`      STR      r0,[r1,#4]
        0x08001a6c:    4608        .F      MOV      r0,r1
        0x08001a6e:    6840        @h      LDR      r0,[r0,#4]
        0x08001a70:    f0400002    @...    ORR      r0,r0,#2
        0x08001a74:    6048        H`      STR      r0,[r1,#4]
        0x08001a76:    bf00        ..      NOP      
        0x08001a78:    4803        .H      LDR      r0,[pc,#12] ; [0x8001a88] = 0x40021000
        0x08001a7a:    6840        @h      LDR      r0,[r0,#4]
        0x08001a7c:    f000000c    ....    AND      r0,r0,#0xc
        0x08001a80:    2808        .(      CMP      r0,#8
        0x08001a82:    d1f9        ..      BNE      0x8001a78 ; SetSysClockTo72 + 200
        0x08001a84:    bd0c        ..      POP      {r2,r3,pc}
    $d
        0x08001a86:    0000        ..      DCW    0
        0x08001a88:    40021000    ...@    DCD    1073876992
        0x08001a8c:    40022000    . .@    DCD    1073881088
    $t
    i.Set_Event_Bit
    Set_Event_Bit
        0x08001a90:    e92d47f0    -..G    PUSH     {r4-r10,lr}
        0x08001a94:    4605        .F      MOV      r5,r0
        0x08001a96:    460f        .F      MOV      r7,r1
        0x08001a98:    f04f0900    O...    MOV      r9,#0
        0x08001a9c:    f7feff72    ..r.    BL       Enter_Critical ; 0x8000984
        0x08001aa0:    4682        .F      MOV      r10,r0
        0x08001aa2:    6828        (h      LDR      r0,[r5,#0]
        0x08001aa4:    2101        .!      MOVS     r1,#1
        0x08001aa6:    40b9        .@      LSLS     r1,r1,r7
        0x08001aa8:    4308        .C      ORRS     r0,r0,r1
        0x08001aaa:    6028        (`      STR      r0,[r5,#0]
        0x08001aac:    2400        .$      MOVS     r4,#0
        0x08001aae:    e04d        M.      B        0x8001b4c ; Set_Event_Bit + 188
        0x08001ab0:    f105001e    ....    ADD      r0,r5,#0x1e
        0x08001ab4:    f8300014    0...    LDRH     r0,[r0,r4,LSL #1]
        0x08001ab8:    2801        .(      CMP      r0,#1
        0x08001aba:    d145        E.      BNE      0x8001b48 ; Set_Event_Bit + 184
        0x08001abc:    eb040044    ..D.    ADD      r0,r4,r4,LSL #1
        0x08001ac0:    eb0000c4    ....    ADD      r0,r0,r4,LSL #3
        0x08001ac4:    4926        &I      LDR      r1,[pc,#152] ; [0x8001b60] = 0x200000bc
        0x08001ac6:    f8510020    Q. .    LDR      r0,[r1,r0,LSL #2]
        0x08001aca:    8800        ..      LDRH     r0,[r0,#0]
        0x08001acc:    4925        %I      LDR      r1,[pc,#148] ; [0x8001b64] = 0x20000044
        0x08001ace:    8809        ..      LDRH     r1,[r1,#0]
        0x08001ad0:    4288        .B      CMP      r0,r1
        0x08001ad2:    d039        9.      BEQ      0x8001b48 ; Set_Event_Bit + 184
        0x08001ad4:    1d28        (.      ADDS     r0,r5,#4
        0x08001ad6:    f8506024    P.$`    LDR      r6,[r0,r4,LSL #2]
        0x08001ada:    3014        .0      ADDS     r0,r0,#0x14
        0x08001adc:    f8108004    ....    LDRB     r8,[r0,r4]
        0x08001ae0:    f1b80f00    ....    CMP      r8,#0
        0x08001ae4:    d107        ..      BNE      0x8001af6 ; Set_Event_Bit + 102
        0x08001ae6:    6828        (h      LDR      r0,[r5,#0]
        0x08001ae8:    4030        0@      ANDS     r0,r0,r6
        0x08001aea:    42b0        .B      CMP      r0,r6
        0x08001aec:    d101        ..      BNE      0x8001af2 ; Set_Event_Bit + 98
        0x08001aee:    2001        .       MOVS     r0,#1
        0x08001af0:    e007        ..      B        0x8001b02 ; Set_Event_Bit + 114
        0x08001af2:    2000        .       MOVS     r0,#0
        0x08001af4:    e005        ..      B        0x8001b02 ; Set_Event_Bit + 114
        0x08001af6:    6828        (h      LDR      r0,[r5,#0]
        0x08001af8:    4030        0@      ANDS     r0,r0,r6
        0x08001afa:    b108        ..      CBZ      r0,0x8001b00 ; Set_Event_Bit + 112
        0x08001afc:    2001        .       MOVS     r0,#1
        0x08001afe:    e000        ..      B        0x8001b02 ; Set_Event_Bit + 114
        0x08001b00:    2000        .       MOVS     r0,#0
        0x08001b02:    4681        .F      MOV      r9,r0
        0x08001b04:    f1b90f01    ....    CMP      r9,#1
        0x08001b08:    d11e        ..      BNE      0x8001b48 ; Set_Event_Bit + 184
        0x08001b0a:    2100        .!      MOVS     r1,#0
        0x08001b0c:    f105001e    ....    ADD      r0,r5,#0x1e
        0x08001b10:    f8201014     ...    STRH     r1,[r0,r4,LSL #1]
        0x08001b14:    2001        .       MOVS     r0,#1
        0x08001b16:    eb040144    ..D.    ADD      r1,r4,r4,LSL #1
        0x08001b1a:    eb0101c4    ....    ADD      r1,r1,r4,LSL #3
        0x08001b1e:    4a10        .J      LDR      r2,[pc,#64] ; [0x8001b60] = 0x200000bc
        0x08001b20:    eb020181    ....    ADD      r1,r2,r1,LSL #2
        0x08001b24:    7208        .r      STRB     r0,[r1,#8]
        0x08001b26:    eb040144    ..D.    ADD      r1,r4,r4,LSL #1
        0x08001b2a:    eb0101c4    ....    ADD      r1,r1,r4,LSL #3
        0x08001b2e:    eb020181    ....    ADD      r1,r2,r1,LSL #2
        0x08001b32:    7248        Hr      STRB     r0,[r1,#9]
        0x08001b34:    eb040044    ..D.    ADD      r0,r4,r4,LSL #1
        0x08001b38:    eb0000c4    ....    ADD      r0,r0,r4,LSL #3
        0x08001b3c:    eb020180    ....    ADD      r1,r2,r0,LSL #2
        0x08001b40:    2201        ."      MOVS     r2,#1
        0x08001b42:    4610        .F      MOV      r0,r2
        0x08001b44:    f7fff8de    ....    BL       List_insert ; 0x8000d04
        0x08001b48:    1c60        `.      ADDS     r0,r4,#1
        0x08001b4a:    b284        ..      UXTH     r4,r0
        0x08001b4c:    2c05        .,      CMP      r4,#5
        0x08001b4e:    dbaf        ..      BLT      0x8001ab0 ; Set_Event_Bit + 32
        0x08001b50:    f7fff87c    ..|.    BL       Launch_Task_Schedule ; 0x8000c4c
        0x08001b54:    4650        PF      MOV      r0,r10
        0x08001b56:    f7feff1f    ....    BL       Exit_Critical ; 0x8000998
        0x08001b5a:    e8bd87f0    ....    POP      {r4-r10,pc}
    $d
        0x08001b5e:    0000        ..      DCW    0
        0x08001b60:    200000bc    ...     DCD    536871100
        0x08001b64:    20000044    D..     DCD    536870980
    $t
    i.Soft_Timer_Creat
    Soft_Timer_Creat
        0x08001b68:    e92d47f0    -..G    PUSH     {r4-r10,lr}
        0x08001b6c:    4605        .F      MOV      r5,r0
        0x08001b6e:    460c        .F      MOV      r4,r1
        0x08001b70:    4616        .F      MOV      r6,r2
        0x08001b72:    461f        .F      MOV      r7,r3
        0x08001b74:    e9dd8908    ....    LDRD     r8,r9,[sp,#0x20]
        0x08001b78:    4827        'H      LDR      r0,[pc,#156] ; [0x8001c18] = 0x20000048
        0x08001b7a:    8800        ..      LDRH     r0,[r0,#0]
        0x08001b7c:    2803        .(      CMP      r0,#3
        0x08001b7e:    da01        ..      BGE      0x8001b84 ; Soft_Timer_Creat + 28
        0x08001b80:    2001        .       MOVS     r0,#1
        0x08001b82:    e000        ..      B        0x8001b86 ; Soft_Timer_Creat + 30
        0x08001b84:    2000        .       MOVS     r0,#0
        0x08001b86:    b920         .      CBNZ     r0,0x8001b92 ; Soft_Timer_Creat + 42
        0x08001b88:    2243        C"      MOVS     r2,#0x43
        0x08001b8a:    a124        $.      ADR      r1,{pc}+0x92 ; 0x8001c1c
        0x08001b8c:    a02c        ,.      ADR      r0,{pc}+0xb4 ; 0x8001c40
        0x08001b8e:    f001f92f    ../.    BL       mini_printf ; 0x8002df0
        0x08001b92:    4821        !H      LDR      r0,[pc,#132] ; [0x8001c18] = 0x20000048
        0x08001b94:    8800        ..      LDRH     r0,[r0,#0]
        0x08001b96:    ebc000c0    ....    RSB      r0,r0,r0,LSL #3
        0x08001b9a:    492d        -I      LDR      r1,[pc,#180] ; [0x8001c50] = 0x200001ac
        0x08001b9c:    f8415020    A. P    STR      r5,[r1,r0,LSL #2]
        0x08001ba0:    481d        .H      LDR      r0,[pc,#116] ; [0x8001c18] = 0x20000048
        0x08001ba2:    8800        ..      LDRH     r0,[r0,#0]
        0x08001ba4:    ebc000c0    ....    RSB      r0,r0,r0,LSL #3
        0x08001ba8:    eb010080    ....    ADD      r0,r1,r0,LSL #2
        0x08001bac:    7104        .q      STRB     r4,[r0,#4]
        0x08001bae:    481a        .H      LDR      r0,[pc,#104] ; [0x8001c18] = 0x20000048
        0x08001bb0:    8800        ..      LDRH     r0,[r0,#0]
        0x08001bb2:    ebc000c0    ....    RSB      r0,r0,r0,LSL #3
        0x08001bb6:    eb010080    ....    ADD      r0,r1,r0,LSL #2
        0x08001bba:    7486        .t      STRB     r6,[r0,#0x12]
        0x08001bbc:    4816        .H      LDR      r0,[pc,#88] ; [0x8001c18] = 0x20000048
        0x08001bbe:    8800        ..      LDRH     r0,[r0,#0]
        0x08001bc0:    ebc000c0    ....    RSB      r0,r0,r0,LSL #3
        0x08001bc4:    eb010080    ....    ADD      r0,r1,r0,LSL #2
        0x08001bc8:    8207        ..      STRH     r7,[r0,#0x10]
        0x08001bca:    4813        .H      LDR      r0,[pc,#76] ; [0x8001c18] = 0x20000048
        0x08001bcc:    8800        ..      LDRH     r0,[r0,#0]
        0x08001bce:    ebc000c0    ....    RSB      r0,r0,r0,LSL #3
        0x08001bd2:    eb010080    ....    ADD      r0,r1,r0,LSL #2
        0x08001bd6:    f8c0800c    ....    STR      r8,[r0,#0xc]
        0x08001bda:    480f        .H      LDR      r0,[pc,#60] ; [0x8001c18] = 0x20000048
        0x08001bdc:    8800        ..      LDRH     r0,[r0,#0]
        0x08001bde:    ebc000c0    ....    RSB      r0,r0,r0,LSL #3
        0x08001be2:    eb010080    ....    ADD      r0,r1,r0,LSL #2
        0x08001be6:    7144        Dq      STRB     r4,[r0,#5]
        0x08001be8:    480b        .H      LDR      r0,[pc,#44] ; [0x8001c18] = 0x20000048
        0x08001bea:    8800        ..      LDRH     r0,[r0,#0]
        0x08001bec:    ebc000c0    ....    RSB      r0,r0,r0,LSL #3
        0x08001bf0:    eb010080    ....    ADD      r0,r1,r0,LSL #2
        0x08001bf4:    f8c08008    ....    STR      r8,[r0,#8]
        0x08001bf8:    4807        .H      LDR      r0,[pc,#28] ; [0x8001c18] = 0x20000048
        0x08001bfa:    8800        ..      LDRH     r0,[r0,#0]
        0x08001bfc:    ebc000c0    ....    RSB      r0,r0,r0,LSL #3
        0x08001c00:    eb010080    ....    ADD      r0,r1,r0,LSL #2
        0x08001c04:    f8c09014    ....    STR      r9,[r0,#0x14]
        0x08001c08:    4803        .H      LDR      r0,[pc,#12] ; [0x8001c18] = 0x20000048
        0x08001c0a:    8800        ..      LDRH     r0,[r0,#0]
        0x08001c0c:    1c40        @.      ADDS     r0,r0,#1
        0x08001c0e:    4902        .I      LDR      r1,[pc,#8] ; [0x8001c18] = 0x20000048
        0x08001c10:    8008        ..      STRH     r0,[r1,#0]
        0x08001c12:    e8bd87f0    ....    POP      {r4-r10,pc}
    $d
        0x08001c16:    0000        ..      DCW    0
        0x08001c18:    20000048    H..     DCD    536870984
        0x08001c1c:    696e696d    mini    DCD    1768843629
        0x08001c20:    534f5452    RTOS    DCD    1397707858
        0x08001c24:    72654b5c    \Ker    DCD    1919241052
        0x08001c28:    5c6c656e    nel\    DCD    1550607726
        0x08001c2c:    5c637253    Src\    DCD    1550021203
        0x08001c30:    74666f73    soft    DCD    1952870259
        0x08001c34:    6d69745f    _tim    DCD    1835627615
        0x08001c38:    632e7265    er.c    DCD    1663988325
        0x08001c3c:    00000000    ....    DCD    0
        0x08001c40:    6f727245    Erro    DCD    1869771333
        0x08001c44:    73253a72    r:%s    DCD    1931819634
        0x08001c48:    0d64252c    ,%d.    DCD    224666924
        0x08001c4c:    0000000a    ....    DCD    10
        0x08001c50:    200001ac    ...     DCD    536871340
    $t
    i.Softimer_List_init
    Softimer_List_init
        0x08001c54:    b530        0.      PUSH     {r4,r5,lr}
        0x08001c56:    b087        ..      SUB      sp,sp,#0x1c
        0x08001c58:    2400        .$      MOVS     r4,#0
        0x08001c5a:    e0e2        ..      B        0x8001e22 ; Softimer_List_init + 462
        0x08001c5c:    1c60        `.      ADDS     r0,r4,#1
        0x08001c5e:    b285        ..      UXTH     r5,r0
        0x08001c60:    e0da        ..      B        0x8001e18 ; Softimer_List_init + 452
        0x08001c62:    ebc400c4    ....    RSB      r0,r4,r4,LSL #3
        0x08001c66:    498c        .I      LDR      r1,[pc,#560] ; [0x8001e98] = 0x200001ac
        0x08001c68:    eb010080    ....    ADD      r0,r1,r0,LSL #2
        0x08001c6c:    8a00        ..      LDRH     r0,[r0,#0x10]
        0x08001c6e:    ebc501c5    ....    RSB      r1,r5,r5,LSL #3
        0x08001c72:    4a89        .J      LDR      r2,[pc,#548] ; [0x8001e98] = 0x200001ac
        0x08001c74:    eb020181    ....    ADD      r1,r2,r1,LSL #2
        0x08001c78:    8a09        ..      LDRH     r1,[r1,#0x10]
        0x08001c7a:    4288        .B      CMP      r0,r1
        0x08001c7c:    da7d        }.      BGE      0x8001d7a ; Softimer_List_init + 294
        0x08001c7e:    ebc500c5    ....    RSB      r0,r5,r5,LSL #3
        0x08001c82:    4611        .F      MOV      r1,r2
        0x08001c84:    f8510020    Q. .    LDR      r0,[r1,r0,LSL #2]
        0x08001c88:    9000        ..      STR      r0,[sp,#0]
        0x08001c8a:    ebc500c5    ....    RSB      r0,r5,r5,LSL #3
        0x08001c8e:    eb010080    ....    ADD      r0,r1,r0,LSL #2
        0x08001c92:    7900        .y      LDRB     r0,[r0,#4]
        0x08001c94:    f88d0004    ....    STRB     r0,[sp,#4]
        0x08001c98:    ebc500c5    ....    RSB      r0,r5,r5,LSL #3
        0x08001c9c:    eb010080    ....    ADD      r0,r1,r0,LSL #2
        0x08001ca0:    7940        @y      LDRB     r0,[r0,#5]
        0x08001ca2:    f88d0005    ....    STRB     r0,[sp,#5]
        0x08001ca6:    ebc500c5    ....    RSB      r0,r5,r5,LSL #3
        0x08001caa:    eb010080    ....    ADD      r0,r1,r0,LSL #2
        0x08001cae:    6880        .h      LDR      r0,[r0,#8]
        0x08001cb0:    9002        ..      STR      r0,[sp,#8]
        0x08001cb2:    ebc500c5    ....    RSB      r0,r5,r5,LSL #3
        0x08001cb6:    eb010080    ....    ADD      r0,r1,r0,LSL #2
        0x08001cba:    68c0        .h      LDR      r0,[r0,#0xc]
        0x08001cbc:    9003        ..      STR      r0,[sp,#0xc]
        0x08001cbe:    ebc500c5    ....    RSB      r0,r5,r5,LSL #3
        0x08001cc2:    eb010080    ....    ADD      r0,r1,r0,LSL #2
        0x08001cc6:    8a00        ..      LDRH     r0,[r0,#0x10]
        0x08001cc8:    f8ad0010    ....    STRH     r0,[sp,#0x10]
        0x08001ccc:    ebc500c5    ....    RSB      r0,r5,r5,LSL #3
        0x08001cd0:    eb010080    ....    ADD      r0,r1,r0,LSL #2
        0x08001cd4:    7c80        .|      LDRB     r0,[r0,#0x12]
        0x08001cd6:    f88d0012    ....    STRB     r0,[sp,#0x12]
        0x08001cda:    ebc500c5    ....    RSB      r0,r5,r5,LSL #3
        0x08001cde:    eb010180    ....    ADD      r1,r1,r0,LSL #2
        0x08001ce2:    e9d10105    ....    LDRD     r0,r1,[r1,#0x14]
        0x08001ce6:    9005        ..      STR      r0,[sp,#0x14]
        0x08001ce8:    9106        ..      STR      r1,[sp,#0x18]
        0x08001cea:    ebc500c5    ....    RSB      r0,r5,r5,LSL #3
        0x08001cee:    4611        .F      MOV      r1,r2
        0x08001cf0:    eb010080    ....    ADD      r0,r1,r0,LSL #2
        0x08001cf4:    ebc401c4    ....    RSB      r1,r4,r4,LSL #3
        0x08001cf8:    f8521021    R.!.    LDR      r1,[r2,r1,LSL #2]
        0x08001cfc:    6001        .`      STR      r1,[r0,#0]
        0x08001cfe:    ebc400c4    ....    RSB      r0,r4,r4,LSL #3
        0x08001d02:    4611        .F      MOV      r1,r2
        0x08001d04:    eb010080    ....    ADD      r0,r1,r0,LSL #2
        0x08001d08:    7900        .y      LDRB     r0,[r0,#4]
        0x08001d0a:    ebc501c5    ....    RSB      r1,r5,r5,LSL #3
        0x08001d0e:    eb020181    ....    ADD      r1,r2,r1,LSL #2
        0x08001d12:    7108        .q      STRB     r0,[r1,#4]
        0x08001d14:    ebc400c4    ....    RSB      r0,r4,r4,LSL #3
        0x08001d18:    4611        .F      MOV      r1,r2
        0x08001d1a:    eb010080    ....    ADD      r0,r1,r0,LSL #2
        0x08001d1e:    7940        @y      LDRB     r0,[r0,#5]
        0x08001d20:    ebc501c5    ....    RSB      r1,r5,r5,LSL #3
        0x08001d24:    eb020181    ....    ADD      r1,r2,r1,LSL #2
        0x08001d28:    7148        Hq      STRB     r0,[r1,#5]
        0x08001d2a:    ebc400c4    ....    RSB      r0,r4,r4,LSL #3
        0x08001d2e:    4611        .F      MOV      r1,r2
        0x08001d30:    eb010080    ....    ADD      r0,r1,r0,LSL #2
        0x08001d34:    6880        .h      LDR      r0,[r0,#8]
        0x08001d36:    ebc501c5    ....    RSB      r1,r5,r5,LSL #3
        0x08001d3a:    eb020181    ....    ADD      r1,r2,r1,LSL #2
        0x08001d3e:    6088        .`      STR      r0,[r1,#8]
        0x08001d40:    ebc400c4    ....    RSB      r0,r4,r4,LSL #3
        0x08001d44:    4611        .F      MOV      r1,r2
        0x08001d46:    eb010080    ....    ADD      r0,r1,r0,LSL #2
        0x08001d4a:    68c0        .h      LDR      r0,[r0,#0xc]
        0x08001d4c:    ebc501c5    ....    RSB      r1,r5,r5,LSL #3
        0x08001d50:    eb020181    ....    ADD      r1,r2,r1,LSL #2
        0x08001d54:    60c8        .`      STR      r0,[r1,#0xc]
        0x08001d56:    ebc500c5    ....    RSB      r0,r5,r5,LSL #3
        0x08001d5a:    4611        .F      MOV      r1,r2
        0x08001d5c:    eb010080    ....    ADD      r0,r1,r0,LSL #2
        0x08001d60:    ebc401c4    ....    RSB      r1,r4,r4,LSL #3
        0x08001d64:    eb020181    ....    ADD      r1,r2,r1,LSL #2
        0x08001d68:    8a09        ..      LDRH     r1,[r1,#0x10]
        0x08001d6a:    8201        ..      STRH     r1,[r0,#0x10]
        0x08001d6c:    ebc400c4    ....    RSB      r0,r4,r4,LSL #3
        0x08001d70:    4611        .F      MOV      r1,r2
        0x08001d72:    eb010080    ....    ADD      r0,r1,r0,LSL #2
        0x08001d76:    7c80        .|      LDRB     r0,[r0,#0x12]
        0x08001d78:    e000        ..      B        0x8001d7c ; Softimer_List_init + 296
        0x08001d7a:    e04b        K.      B        0x8001e14 ; Softimer_List_init + 448
        0x08001d7c:    ebc501c5    ....    RSB      r1,r5,r5,LSL #3
        0x08001d80:    eb020181    ....    ADD      r1,r2,r1,LSL #2
        0x08001d84:    7488        .t      STRB     r0,[r1,#0x12]
        0x08001d86:    ebc500c5    ....    RSB      r0,r5,r5,LSL #3
        0x08001d8a:    4611        .F      MOV      r1,r2
        0x08001d8c:    eb010080    ....    ADD      r0,r1,r0,LSL #2
        0x08001d90:    ebc401c4    ....    RSB      r1,r4,r4,LSL #3
        0x08001d94:    eb020281    ....    ADD      r2,r2,r1,LSL #2
        0x08001d98:    e9d21205    ....    LDRD     r1,r2,[r2,#0x14]
        0x08001d9c:    e9c01205    ....    STRD     r1,r2,[r0,#0x14]
        0x08001da0:    ebc400c4    ....    RSB      r0,r4,r4,LSL #3
        0x08001da4:    493c        <I      LDR      r1,[pc,#240] ; [0x8001e98] = 0x200001ac
        0x08001da6:    eb010080    ....    ADD      r0,r1,r0,LSL #2
        0x08001daa:    9900        ..      LDR      r1,[sp,#0]
        0x08001dac:    6001        .`      STR      r1,[r0,#0]
        0x08001dae:    f89d0004    ....    LDRB     r0,[sp,#4]
        0x08001db2:    ebc401c4    ....    RSB      r1,r4,r4,LSL #3
        0x08001db6:    4a38        8J      LDR      r2,[pc,#224] ; [0x8001e98] = 0x200001ac
        0x08001db8:    eb020181    ....    ADD      r1,r2,r1,LSL #2
        0x08001dbc:    7108        .q      STRB     r0,[r1,#4]
        0x08001dbe:    f89d0005    ....    LDRB     r0,[sp,#5]
        0x08001dc2:    ebc401c4    ....    RSB      r1,r4,r4,LSL #3
        0x08001dc6:    eb020181    ....    ADD      r1,r2,r1,LSL #2
        0x08001dca:    7148        Hq      STRB     r0,[r1,#5]
        0x08001dcc:    9802        ..      LDR      r0,[sp,#8]
        0x08001dce:    ebc401c4    ....    RSB      r1,r4,r4,LSL #3
        0x08001dd2:    eb020181    ....    ADD      r1,r2,r1,LSL #2
        0x08001dd6:    6088        .`      STR      r0,[r1,#8]
        0x08001dd8:    9803        ..      LDR      r0,[sp,#0xc]
        0x08001dda:    ebc401c4    ....    RSB      r1,r4,r4,LSL #3
        0x08001dde:    eb020181    ....    ADD      r1,r2,r1,LSL #2
        0x08001de2:    60c8        .`      STR      r0,[r1,#0xc]
        0x08001de4:    ebc400c4    ....    RSB      r0,r4,r4,LSL #3
        0x08001de8:    4611        .F      MOV      r1,r2
        0x08001dea:    eb010080    ....    ADD      r0,r1,r0,LSL #2
        0x08001dee:    f8bd1010    ....    LDRH     r1,[sp,#0x10]
        0x08001df2:    8201        ..      STRH     r1,[r0,#0x10]
        0x08001df4:    f89d0012    ....    LDRB     r0,[sp,#0x12]
        0x08001df8:    ebc401c4    ....    RSB      r1,r4,r4,LSL #3
        0x08001dfc:    eb020181    ....    ADD      r1,r2,r1,LSL #2
        0x08001e00:    7488        .t      STRB     r0,[r1,#0x12]
        0x08001e02:    ebc400c4    ....    RSB      r0,r4,r4,LSL #3
        0x08001e06:    4611        .F      MOV      r1,r2
        0x08001e08:    eb010080    ....    ADD      r0,r1,r0,LSL #2
        0x08001e0c:    9905        ..      LDR      r1,[sp,#0x14]
        0x08001e0e:    9a06        ..      LDR      r2,[sp,#0x18]
        0x08001e10:    e9c01205    ....    STRD     r1,r2,[r0,#0x14]
        0x08001e14:    1c68        h.      ADDS     r0,r5,#1
        0x08001e16:    b285        ..      UXTH     r5,r0
        0x08001e18:    2d03        .-      CMP      r5,#3
        0x08001e1a:    f6ffaf22    ..".    BLT      0x8001c62 ; Softimer_List_init + 14
        0x08001e1e:    1c60        `.      ADDS     r0,r4,#1
        0x08001e20:    b284        ..      UXTH     r4,r0
        0x08001e22:    2c03        .,      CMP      r4,#3
        0x08001e24:    f6ffaf1a    ....    BLT      0x8001c5c ; Softimer_List_init + 8
        0x08001e28:    2400        .$      MOVS     r4,#0
        0x08001e2a:    e007        ..      B        0x8001e3c ; Softimer_List_init + 488
        0x08001e2c:    ebc400c4    ....    RSB      r0,r4,r4,LSL #3
        0x08001e30:    4919        .I      LDR      r1,[pc,#100] ; [0x8001e98] = 0x200001ac
        0x08001e32:    f8510020    Q. .    LDR      r0,[r1,r0,LSL #2]
        0x08001e36:    8004        ..      STRH     r4,[r0,#0]
        0x08001e38:    1c60        `.      ADDS     r0,r4,#1
        0x08001e3a:    b284        ..      UXTH     r4,r0
        0x08001e3c:    2c03        .,      CMP      r4,#3
        0x08001e3e:    dbf5        ..      BLT      0x8001e2c ; Softimer_List_init + 472
        0x08001e40:    4815        .H      LDR      r0,[pc,#84] ; [0x8001e98] = 0x200001ac
        0x08001e42:    4916        .I      LDR      r1,[pc,#88] ; [0x8001e9c] = 0x20000040
        0x08001e44:    6008        .`      STR      r0,[r1,#0]
        0x08001e46:    2400        .$      MOVS     r4,#0
        0x08001e48:    e00d        ..      B        0x8001e66 ; Softimer_List_init + 530
        0x08001e4a:    1c60        `.      ADDS     r0,r4,#1
        0x08001e4c:    ebc000c0    ....    RSB      r0,r0,r0,LSL #3
        0x08001e50:    4911        .I      LDR      r1,[pc,#68] ; [0x8001e98] = 0x200001ac
        0x08001e52:    eb010080    ....    ADD      r0,r1,r0,LSL #2
        0x08001e56:    ebc401c4    ....    RSB      r1,r4,r4,LSL #3
        0x08001e5a:    4a0f        .J      LDR      r2,[pc,#60] ; [0x8001e98] = 0x200001ac
        0x08001e5c:    eb020181    ....    ADD      r1,r2,r1,LSL #2
        0x08001e60:    6188        .a      STR      r0,[r1,#0x18]
        0x08001e62:    1c60        `.      ADDS     r0,r4,#1
        0x08001e64:    b284        ..      UXTH     r4,r0
        0x08001e66:    2c02        .,      CMP      r4,#2
        0x08001e68:    dbef        ..      BLT      0x8001e4a ; Softimer_List_init + 502
        0x08001e6a:    2000        .       MOVS     r0,#0
        0x08001e6c:    ebc401c4    ....    RSB      r1,r4,r4,LSL #3
        0x08001e70:    4a09        .J      LDR      r2,[pc,#36] ; [0x8001e98] = 0x200001ac
        0x08001e72:    eb020181    ....    ADD      r1,r2,r1,LSL #2
        0x08001e76:    6188        .a      STR      r0,[r1,#0x18]
        0x08001e78:    2400        .$      MOVS     r4,#0
        0x08001e7a:    e008        ..      B        0x8001e8e ; Softimer_List_init + 570
        0x08001e7c:    ebc401c4    ....    RSB      r1,r4,r4,LSL #3
        0x08001e80:    4a05        .J      LDR      r2,[pc,#20] ; [0x8001e98] = 0x200001ac
        0x08001e82:    eb020081    ....    ADD      r0,r2,r1,LSL #2
        0x08001e86:    f000f80b    ....    BL       Softimer_list_insert ; 0x8001ea0
        0x08001e8a:    1c60        `.      ADDS     r0,r4,#1
        0x08001e8c:    b284        ..      UXTH     r4,r0
        0x08001e8e:    2c03        .,      CMP      r4,#3
        0x08001e90:    dbf4        ..      BLT      0x8001e7c ; Softimer_List_init + 552
        0x08001e92:    b007        ..      ADD      sp,sp,#0x1c
        0x08001e94:    bd30        0.      POP      {r4,r5,pc}
    $d
        0x08001e96:    0000        ..      DCW    0
        0x08001e98:    200001ac    ...     DCD    536871340
        0x08001e9c:    20000040    @..     DCD    536870976
    $t
    i.Softimer_list_insert
    Softimer_list_insert
        0x08001ea0:    b530        0.      PUSH     {r4,r5,lr}
        0x08001ea2:    4604        .F      MOV      r4,r0
        0x08001ea4:    4620         F      MOV      r0,r4
        0x08001ea6:    f000f829    ..).    BL       Softimer_list_remove_node ; 0x8001efc
        0x08001eaa:    68a0        .h      LDR      r0,[r4,#8]
        0x08001eac:    4912        .I      LDR      r1,[pc,#72] ; [0x8001ef8] = 0x20000040
        0x08001eae:    6809        .h      LDR      r1,[r1,#0]
        0x08001eb0:    6889        .h      LDR      r1,[r1,#8]
        0x08001eb2:    4288        .B      CMP      r0,r1
        0x08001eb4:    d205        ..      BCS      0x8001ec2 ; Softimer_list_insert + 34
        0x08001eb6:    4810        .H      LDR      r0,[pc,#64] ; [0x8001ef8] = 0x20000040
        0x08001eb8:    6800        .h      LDR      r0,[r0,#0]
        0x08001eba:    61a0        .a      STR      r0,[r4,#0x18]
        0x08001ebc:    480e        .H      LDR      r0,[pc,#56] ; [0x8001ef8] = 0x20000040
        0x08001ebe:    6004        .`      STR      r4,[r0,#0]
        0x08001ec0:    e019        ..      B        0x8001ef6 ; Softimer_list_insert + 86
        0x08001ec2:    480d        .H      LDR      r0,[pc,#52] ; [0x8001ef8] = 0x20000040
        0x08001ec4:    6805        .h      LDR      r5,[r0,#0]
        0x08001ec6:    e00d        ..      B        0x8001ee4 ; Softimer_list_insert + 68
        0x08001ec8:    68a0        .h      LDR      r0,[r4,#8]
        0x08001eca:    68a9        .h      LDR      r1,[r5,#8]
        0x08001ecc:    4288        .B      CMP      r0,r1
        0x08001ece:    d308        ..      BCC      0x8001ee2 ; Softimer_list_insert + 66
        0x08001ed0:    68a0        .h      LDR      r0,[r4,#8]
        0x08001ed2:    69a9        .i      LDR      r1,[r5,#0x18]
        0x08001ed4:    6889        .h      LDR      r1,[r1,#8]
        0x08001ed6:    4288        .B      CMP      r0,r1
        0x08001ed8:    d803        ..      BHI      0x8001ee2 ; Softimer_list_insert + 66
        0x08001eda:    69a8        .i      LDR      r0,[r5,#0x18]
        0x08001edc:    61a0        .a      STR      r0,[r4,#0x18]
        0x08001ede:    61ac        .a      STR      r4,[r5,#0x18]
        0x08001ee0:    e003        ..      B        0x8001eea ; Softimer_list_insert + 74
        0x08001ee2:    69ad        .i      LDR      r5,[r5,#0x18]
        0x08001ee4:    69a8        .i      LDR      r0,[r5,#0x18]
        0x08001ee6:    2800        .(      CMP      r0,#0
        0x08001ee8:    d1ee        ..      BNE      0x8001ec8 ; Softimer_list_insert + 40
        0x08001eea:    bf00        ..      NOP      
        0x08001eec:    69a8        .i      LDR      r0,[r5,#0x18]
        0x08001eee:    b910        ..      CBNZ     r0,0x8001ef6 ; Softimer_list_insert + 86
        0x08001ef0:    61ac        .a      STR      r4,[r5,#0x18]
        0x08001ef2:    2000        .       MOVS     r0,#0
        0x08001ef4:    61a0        .a      STR      r0,[r4,#0x18]
        0x08001ef6:    bd30        0.      POP      {r4,r5,pc}
    $d
        0x08001ef8:    20000040    @..     DCD    536870976
    $t
    i.Softimer_list_remove_node
    Softimer_list_remove_node
        0x08001efc:    4601        .F      MOV      r1,r0
        0x08001efe:    4b0f        .K      LDR      r3,[pc,#60] ; [0x8001f3c] = 0x20000040
        0x08001f00:    680a        .h      LDR      r2,[r1,#0]
        0x08001f02:    681b        .h      LDR      r3,[r3,#0]
        0x08001f04:    681b        .h      LDR      r3,[r3,#0]
        0x08001f06:    429a        .B      CMP      r2,r3
        0x08001f08:    d105        ..      BNE      0x8001f16 ; Softimer_list_remove_node + 26
        0x08001f0a:    4a0c        .J      LDR      r2,[pc,#48] ; [0x8001f3c] = 0x20000040
        0x08001f0c:    6812        .h      LDR      r2,[r2,#0]
        0x08001f0e:    6992        .i      LDR      r2,[r2,#0x18]
        0x08001f10:    4b0a        .K      LDR      r3,[pc,#40] ; [0x8001f3c] = 0x20000040
        0x08001f12:    601a        .`      STR      r2,[r3,#0]
        0x08001f14:    e010        ..      B        0x8001f38 ; Softimer_list_remove_node + 60
        0x08001f16:    4a09        .J      LDR      r2,[pc,#36] ; [0x8001f3c] = 0x20000040
        0x08001f18:    6810        .h      LDR      r0,[r2,#0]
        0x08001f1a:    e009        ..      B        0x8001f30 ; Softimer_list_remove_node + 52
        0x08001f1c:    6982        .i      LDR      r2,[r0,#0x18]
        0x08001f1e:    6812        .h      LDR      r2,[r2,#0]
        0x08001f20:    680b        .h      LDR      r3,[r1,#0]
        0x08001f22:    429a        .B      CMP      r2,r3
        0x08001f24:    d103        ..      BNE      0x8001f2e ; Softimer_list_remove_node + 50
        0x08001f26:    6982        .i      LDR      r2,[r0,#0x18]
        0x08001f28:    6992        .i      LDR      r2,[r2,#0x18]
        0x08001f2a:    6182        .a      STR      r2,[r0,#0x18]
        0x08001f2c:    e003        ..      B        0x8001f36 ; Softimer_list_remove_node + 58
        0x08001f2e:    6980        .i      LDR      r0,[r0,#0x18]
        0x08001f30:    6982        .i      LDR      r2,[r0,#0x18]
        0x08001f32:    2a00        .*      CMP      r2,#0
        0x08001f34:    d1f2        ..      BNE      0x8001f1c ; Softimer_list_remove_node + 32
        0x08001f36:    bf00        ..      NOP      
        0x08001f38:    4770        pG      BX       lr
    $d
        0x08001f3a:    0000        ..      DCW    0
        0x08001f3c:    20000040    @..     DCD    536870976
    $t
    i.Start_Soft_Timer
    Start_Soft_Timer
        0x08001f40:    b570        p.      PUSH     {r4-r6,lr}
        0x08001f42:    4604        .F      MOV      r4,r0
        0x08001f44:    f7fefd1e    ....    BL       Enter_Critical ; 0x8000984
        0x08001f48:    4605        .F      MOV      r5,r0
        0x08001f4a:    ebc400c4    ....    RSB      r0,r4,r4,LSL #3
        0x08001f4e:    4912        .I      LDR      r1,[pc,#72] ; [0x8001f98] = 0x200001ac
        0x08001f50:    eb010080    ....    ADD      r0,r1,r0,LSL #2
        0x08001f54:    68c0        .h      LDR      r0,[r0,#0xc]
        0x08001f56:    4911        .I      LDR      r1,[pc,#68] ; [0x8001f9c] = 0x20000030
        0x08001f58:    6809        .h      LDR      r1,[r1,#0]
        0x08001f5a:    4408        .D      ADD      r0,r0,r1
        0x08001f5c:    ebc401c4    ....    RSB      r1,r4,r4,LSL #3
        0x08001f60:    4a0d        .J      LDR      r2,[pc,#52] ; [0x8001f98] = 0x200001ac
        0x08001f62:    eb020181    ....    ADD      r1,r2,r1,LSL #2
        0x08001f66:    6088        .`      STR      r0,[r1,#8]
        0x08001f68:    ebc401c4    ....    RSB      r1,r4,r4,LSL #3
        0x08001f6c:    eb020081    ....    ADD      r0,r2,r1,LSL #2
        0x08001f70:    f7ffff96    ....    BL       Softimer_list_insert ; 0x8001ea0
        0x08001f74:    2000        .       MOVS     r0,#0
        0x08001f76:    ebc401c4    ....    RSB      r1,r4,r4,LSL #3
        0x08001f7a:    4a07        .J      LDR      r2,[pc,#28] ; [0x8001f98] = 0x200001ac
        0x08001f7c:    eb020181    ....    ADD      r1,r2,r1,LSL #2
        0x08001f80:    7108        .q      STRB     r0,[r1,#4]
        0x08001f82:    2001        .       MOVS     r0,#1
        0x08001f84:    ebc401c4    ....    RSB      r1,r4,r4,LSL #3
        0x08001f88:    eb020181    ....    ADD      r1,r2,r1,LSL #2
        0x08001f8c:    7148        Hq      STRB     r0,[r1,#5]
        0x08001f8e:    4628        (F      MOV      r0,r5
        0x08001f90:    f7fefd02    ....    BL       Exit_Critical ; 0x8000998
        0x08001f94:    bd70        p.      POP      {r4-r6,pc}
    $d
        0x08001f96:    0000        ..      DCW    0
        0x08001f98:    200001ac    ...     DCD    536871340
        0x08001f9c:    20000030    0..     DCD    536870960
    $t
    i.Start_task
    Start_task
        0x08001fa0:    4804        .H      LDR      r0,[pc,#16] ; [0x8001fb4] = 0x2000002e
        0x08001fa2:    8800        ..      LDRH     r0,[r0,#0]
        0x08001fa4:    f7feffe8    ....    BL       Pend_Task ; 0x8000f78
        0x08001fa8:    f7fefcea    ....    BL       Enable_Interrupt ; 0x8000980
        0x08001fac:    f7fffb68    ..h.    BL       Release_Schedule ; 0x8001680
        0x08001fb0:    bf00        ..      NOP      
        0x08001fb2:    e7fe        ..      B        0x8001fb2 ; Start_task + 18
    $d
        0x08001fb4:    2000002e    ...     DCD    536870958
    $t
    i.Stop_Soft_Timer
    Stop_Soft_Timer
        0x08001fb8:    b570        p.      PUSH     {r4-r6,lr}
        0x08001fba:    4604        .F      MOV      r4,r0
        0x08001fbc:    f7fefce2    ....    BL       Enter_Critical ; 0x8000984
        0x08001fc0:    4605        .F      MOV      r5,r0
        0x08001fc2:    ebc401c4    ....    RSB      r1,r4,r4,LSL #3
        0x08001fc6:    4a0a        .J      LDR      r2,[pc,#40] ; [0x8001ff0] = 0x200001ac
        0x08001fc8:    eb020081    ....    ADD      r0,r2,r1,LSL #2
        0x08001fcc:    f7ffff96    ....    BL       Softimer_list_remove_node ; 0x8001efc
        0x08001fd0:    2000        .       MOVS     r0,#0
        0x08001fd2:    ebc401c4    ....    RSB      r1,r4,r4,LSL #3
        0x08001fd6:    4a06        .J      LDR      r2,[pc,#24] ; [0x8001ff0] = 0x200001ac
        0x08001fd8:    eb020181    ....    ADD      r1,r2,r1,LSL #2
        0x08001fdc:    7108        .q      STRB     r0,[r1,#4]
        0x08001fde:    ebc401c4    ....    RSB      r1,r4,r4,LSL #3
        0x08001fe2:    eb020181    ....    ADD      r1,r2,r1,LSL #2
        0x08001fe6:    7148        Hq      STRB     r0,[r1,#5]
        0x08001fe8:    4628        (F      MOV      r0,r5
        0x08001fea:    f7fefcd5    ....    BL       Exit_Critical ; 0x8000998
        0x08001fee:    bd70        p.      POP      {r4-r6,pc}
    $d
        0x08001ff0:    200001ac    ...     DCD    536871340
    $t
    i.SysTick_Handler
    SysTick_Handler
        0x08001ff4:    b510        ..      PUSH     {r4,lr}
        0x08001ff6:    f7fffa93    ....    BL       RTOS_Tick_IRQ ; 0x8001520
        0x08001ffa:    bd10        ..      POP      {r4,pc}
    i.SystemInit
    SystemInit
        0x08001ffc:    b510        ..      PUSH     {r4,lr}
        0x08001ffe:    4813        .H      LDR      r0,[pc,#76] ; [0x800204c] = 0x40021000
        0x08002000:    6800        .h      LDR      r0,[r0,#0]
        0x08002002:    f0400001    @...    ORR      r0,r0,#1
        0x08002006:    4911        .I      LDR      r1,[pc,#68] ; [0x800204c] = 0x40021000
        0x08002008:    6008        .`      STR      r0,[r1,#0]
        0x0800200a:    4608        .F      MOV      r0,r1
        0x0800200c:    6840        @h      LDR      r0,[r0,#4]
        0x0800200e:    4910        .I      LDR      r1,[pc,#64] ; [0x8002050] = 0xf8ff0000
        0x08002010:    4008        .@      ANDS     r0,r0,r1
        0x08002012:    490e        .I      LDR      r1,[pc,#56] ; [0x800204c] = 0x40021000
        0x08002014:    6048        H`      STR      r0,[r1,#4]
        0x08002016:    4608        .F      MOV      r0,r1
        0x08002018:    6800        .h      LDR      r0,[r0,#0]
        0x0800201a:    490e        .I      LDR      r1,[pc,#56] ; [0x8002054] = 0xfef6ffff
        0x0800201c:    4008        .@      ANDS     r0,r0,r1
        0x0800201e:    490b        .I      LDR      r1,[pc,#44] ; [0x800204c] = 0x40021000
        0x08002020:    6008        .`      STR      r0,[r1,#0]
        0x08002022:    4608        .F      MOV      r0,r1
        0x08002024:    6800        .h      LDR      r0,[r0,#0]
        0x08002026:    f4202080     ..     BIC      r0,r0,#0x40000
        0x0800202a:    6008        .`      STR      r0,[r1,#0]
        0x0800202c:    4608        .F      MOV      r0,r1
        0x0800202e:    6840        @h      LDR      r0,[r0,#4]
        0x08002030:    f42000fe     ...    BIC      r0,r0,#0x7f0000
        0x08002034:    6048        H`      STR      r0,[r1,#4]
        0x08002036:    f44f001f    O...    MOV      r0,#0x9f0000
        0x0800203a:    6088        .`      STR      r0,[r1,#8]
        0x0800203c:    f7fffcb4    ....    BL       SetSysClock ; 0x80019a8
        0x08002040:    f04f6000    O..`    MOV      r0,#0x8000000
        0x08002044:    4904        .I      LDR      r1,[pc,#16] ; [0x8002058] = 0xe000ed08
        0x08002046:    6008        .`      STR      r0,[r1,#0]
        0x08002048:    bd10        ..      POP      {r4,pc}
    $d
        0x0800204a:    0000        ..      DCW    0
        0x0800204c:    40021000    ...@    DCD    1073876992
        0x08002050:    f8ff0000    ....    DCD    4177461248
        0x08002054:    fef6ffff    ....    DCD    4277600255
        0x08002058:    e000ed08    ....    DCD    3758157064
    $t
    i.Task_Creat_Init
    Task_Creat_Init
        0x0800205c:    b51f        ..      PUSH     {r0-r4,lr}
        0x0800205e:    f7fefc7b    ..{.    BL       Creat_queue ; 0x8000958
        0x08002062:    4921        !I      LDR      r1,[pc,#132] ; [0x80020e8] = 0x20000020
        0x08002064:    6008        .`      STR      r0,[r1,#0]
        0x08002066:    4608        .F      MOV      r0,r1
        0x08002068:    6800        .h      LDR      r0,[r0,#0]
        0x0800206a:    b910        ..      CBNZ     r0,0x8002072 ; Task_Creat_Init + 22
        0x0800206c:    a01f        ..      ADR      r0,{pc}+0x80 ; 0x80020ec
        0x0800206e:    f000febf    ....    BL       mini_printf ; 0x8002df0
        0x08002072:    2201        ."      MOVS     r2,#1
        0x08002074:    4922        "I      LDR      r1,[pc,#136] ; [0x8002100] = 0x20000058
        0x08002076:    4610        .F      MOV      r0,r2
        0x08002078:    f7fffb38    ..8.    BL       Semaphore_Creat ; 0x80016ec
        0x0800207c:    4821        !H      LDR      r0,[pc,#132] ; [0x8002104] = 0x80023d5
        0x0800207e:    f44f71fa    O..q    MOV      r1,#0x1f4
        0x08002082:    2301        .#      MOVS     r3,#1
        0x08002084:    461a        .F      MOV      r2,r3
        0x08002086:    e9cd1000    ....    STRD     r1,r0,[sp,#0]
        0x0800208a:    2100        .!      MOVS     r1,#0
        0x0800208c:    481e        .H      LDR      r0,[pc,#120] ; [0x8002108] = 0x2000001a
        0x0800208e:    f7fffd6b    ..k.    BL       Soft_Timer_Creat ; 0x8001b68
        0x08002092:    481e        .H      LDR      r0,[pc,#120] ; [0x800210c] = 0x8002401
        0x08002094:    f44f717a    O.zq    MOV      r1,#0x3e8
        0x08002098:    2302        .#      MOVS     r3,#2
        0x0800209a:    2201        ."      MOVS     r2,#1
        0x0800209c:    e9cd1000    ....    STRD     r1,r0,[sp,#0]
        0x080020a0:    2100        .!      MOVS     r1,#0
        0x080020a2:    481b        .H      LDR      r0,[pc,#108] ; [0x8002110] = 0x2000001c
        0x080020a4:    f7fffd60    ..`.    BL       Soft_Timer_Creat ; 0x8001b68
        0x080020a8:    481a        .H      LDR      r0,[pc,#104] ; [0x8002114] = 0x80031e1
        0x080020aa:    2164        d!      MOVS     r1,#0x64
        0x080020ac:    f44f727a    O.zr    MOV      r2,#0x3e8
        0x080020b0:    2300        .#      MOVS     r3,#0
        0x080020b2:    e9cd3200    ...2    STRD     r3,r2,[sp,#0]
        0x080020b6:    e9cd1002    ....    STRD     r1,r0,[sp,#8]
        0x080020ba:    2301        .#      MOVS     r3,#1
        0x080020bc:    461a        .F      MOV      r2,r3
        0x080020be:    a116        ..      ADR      r1,{pc}+0x5a ; 0x8002118
        0x080020c0:    4817        .H      LDR      r0,[pc,#92] ; [0x8002120] = 0x20000016
        0x080020c2:    f000f837    ..7.    BL       Task_Create ; 0x8002134
        0x080020c6:    4817        .H      LDR      r0,[pc,#92] ; [0x8002124] = 0x80035c9
        0x080020c8:    2164        d!      MOVS     r1,#0x64
        0x080020ca:    f44f727a    O.zr    MOV      r2,#0x3e8
        0x080020ce:    2300        .#      MOVS     r3,#0
        0x080020d0:    e9cd3200    ...2    STRD     r3,r2,[sp,#0]
        0x080020d4:    e9cd1002    ....    STRD     r1,r0,[sp,#8]
        0x080020d8:    2302        .#      MOVS     r3,#2
        0x080020da:    2201        ."      MOVS     r2,#1
        0x080020dc:    a112        ..      ADR      r1,{pc}+0x4c ; 0x8002128
        0x080020de:    4814        .H      LDR      r0,[pc,#80] ; [0x8002130] = 0x20000018
        0x080020e0:    f000f828    ..(.    BL       Task_Create ; 0x8002134
        0x080020e4:    bd1f        ..      POP      {r0-r4,pc}
    $d
        0x080020e6:    0000        ..      DCW    0
        0x080020e8:    20000020     ..     DCD    536870944
        0x080020ec:    61657243    Crea    DCD    1634038339
        0x080020f0:    75512074    t Qu    DCD    1968250996
        0x080020f4:    20657565    eue     DCD    543520101
        0x080020f8:    6c696146    Fail    DCD    1818845510
        0x080020fc:    00000a0d    ....    DCD    2573
        0x08002100:    20000058    X..     DCD    536871000
        0x08002104:    080023d5    .#..    DCD    134226901
        0x08002108:    2000001a    ...     DCD    536870938
        0x0800210c:    08002401    .$..    DCD    134226945
        0x08002110:    2000001c    ...     DCD    536870940
        0x08002114:    080031e1    .1..    DCD    134230497
        0x08002118:    6b736174    task    DCD    1802723700
        0x0800211c:    00000031    1...    DCD    49
        0x08002120:    20000016    ...     DCD    536870934
        0x08002124:    080035c9    .5..    DCD    134231497
        0x08002128:    6b736174    task    DCD    1802723700
        0x0800212c:    00000032    2...    DCD    50
        0x08002130:    20000018    ...     DCD    536870936
    $t
    i.Task_Create
    Task_Create
        0x08002134:    e92d5ff0    -.._    PUSH     {r4-r12,lr}
        0x08002138:    4606        .F      MOV      r6,r0
        0x0800213a:    460f        .F      MOV      r7,r1
        0x0800213c:    4615        .F      MOV      r5,r2
        0x0800213e:    4698        .F      MOV      r8,r3
        0x08002140:    e9ddb90a    ....    LDRD     r11,r9,[sp,#0x28]
        0x08002144:    f8dda030    ..0.    LDR      r10,[sp,#0x30]
        0x08002148:    485b        [H      LDR      r0,[pc,#364] ; [0x80022b8] = 0x2000003e
        0x0800214a:    8800        ..      LDRH     r0,[r0,#0]
        0x0800214c:    2805        .(      CMP      r0,#5
        0x0800214e:    da01        ..      BGE      0x8002154 ; Task_Create + 32
        0x08002150:    2001        .       MOVS     r0,#1
        0x08002152:    e000        ..      B        0x8002156 ; Task_Create + 34
        0x08002154:    2000        .       MOVS     r0,#0
        0x08002156:    b920         .      CBNZ     r0,0x8002162 ; Task_Create + 46
        0x08002158:    224e        N"      MOVS     r2,#0x4e
        0x0800215a:    a158        X.      ADR      r1,{pc}+0x162 ; 0x80022bc
        0x0800215c:    a05f        _.      ADR      r0,{pc}+0x180 ; 0x80022dc
        0x0800215e:    f000fe47    ..G.    BL       mini_printf ; 0x8002df0
        0x08002162:    4855        UH      LDR      r0,[pc,#340] ; [0x80022b8] = 0x2000003e
        0x08002164:    8800        ..      LDRH     r0,[r0,#0]
        0x08002166:    eb000140    ..@.    ADD      r1,r0,r0,LSL #1
        0x0800216a:    eb0100c0    ....    ADD      r0,r1,r0,LSL #3
        0x0800216e:    495f        _I      LDR      r1,[pc,#380] ; [0x80022ec] = 0x200000bc
        0x08002170:    f8416020    A. `    STR      r6,[r1,r0,LSL #2]
        0x08002174:    4850        PH      LDR      r0,[pc,#320] ; [0x80022b8] = 0x2000003e
        0x08002176:    8800        ..      LDRH     r0,[r0,#0]
        0x08002178:    eb000140    ..@.    ADD      r1,r0,r0,LSL #1
        0x0800217c:    eb0100c0    ....    ADD      r0,r1,r0,LSL #3
        0x08002180:    495a        ZI      LDR      r1,[pc,#360] ; [0x80022ec] = 0x200000bc
        0x08002182:    eb010080    ....    ADD      r0,r1,r0,LSL #2
        0x08002186:    6047        G`      STR      r7,[r0,#4]
        0x08002188:    484b        KH      LDR      r0,[pc,#300] ; [0x80022b8] = 0x2000003e
        0x0800218a:    8800        ..      LDRH     r0,[r0,#0]
        0x0800218c:    eb000140    ..@.    ADD      r1,r0,r0,LSL #1
        0x08002190:    eb0100c0    ....    ADD      r0,r1,r0,LSL #3
        0x08002194:    4955        UI      LDR      r1,[pc,#340] ; [0x80022ec] = 0x200000bc
        0x08002196:    eb010080    ....    ADD      r0,r1,r0,LSL #2
        0x0800219a:    7205        .r      STRB     r5,[r0,#8]
        0x0800219c:    4846        FH      LDR      r0,[pc,#280] ; [0x80022b8] = 0x2000003e
        0x0800219e:    8800        ..      LDRH     r0,[r0,#0]
        0x080021a0:    eb000140    ..@.    ADD      r1,r0,r0,LSL #1
        0x080021a4:    eb0100c0    ....    ADD      r0,r1,r0,LSL #3
        0x080021a8:    4950        PI      LDR      r1,[pc,#320] ; [0x80022ec] = 0x200000bc
        0x080021aa:    eb010080    ....    ADD      r0,r1,r0,LSL #2
        0x080021ae:    7245        Er      STRB     r5,[r0,#9]
        0x080021b0:    4841        AH      LDR      r0,[pc,#260] ; [0x80022b8] = 0x2000003e
        0x080021b2:    8800        ..      LDRH     r0,[r0,#0]
        0x080021b4:    eb000140    ..@.    ADD      r1,r0,r0,LSL #1
        0x080021b8:    eb0100c0    ....    ADD      r0,r1,r0,LSL #3
        0x080021bc:    494b        KI      LDR      r1,[pc,#300] ; [0x80022ec] = 0x200000bc
        0x080021be:    eb010080    ....    ADD      r0,r1,r0,LSL #2
        0x080021c2:    f8a0800a    ....    STRH     r8,[r0,#0xa]
        0x080021c6:    483c        <H      LDR      r0,[pc,#240] ; [0x80022b8] = 0x2000003e
        0x080021c8:    8800        ..      LDRH     r0,[r0,#0]
        0x080021ca:    eb000140    ..@.    ADD      r1,r0,r0,LSL #1
        0x080021ce:    eb0100c0    ....    ADD      r0,r1,r0,LSL #3
        0x080021d2:    4946        FI      LDR      r1,[pc,#280] ; [0x80022ec] = 0x200000bc
        0x080021d4:    eb010080    ....    ADD      r0,r1,r0,LSL #2
        0x080021d8:    f8c0b00c    ....    STR      r11,[r0,#0xc]
        0x080021dc:    4836        6H      LDR      r0,[pc,#216] ; [0x80022b8] = 0x2000003e
        0x080021de:    8800        ..      LDRH     r0,[r0,#0]
        0x080021e0:    eb000140    ..@.    ADD      r1,r0,r0,LSL #1
        0x080021e4:    eb0100c0    ....    ADD      r0,r1,r0,LSL #3
        0x080021e8:    4940        @I      LDR      r1,[pc,#256] ; [0x80022ec] = 0x200000bc
        0x080021ea:    eb010080    ....    ADD      r0,r1,r0,LSL #2
        0x080021ee:    f8c09014    ....    STR      r9,[r0,#0x14]
        0x080021f2:    4831        1H      LDR      r0,[pc,#196] ; [0x80022b8] = 0x2000003e
        0x080021f4:    8800        ..      LDRH     r0,[r0,#0]
        0x080021f6:    eb000140    ..@.    ADD      r1,r0,r0,LSL #1
        0x080021fa:    eb0100c0    ....    ADD      r0,r1,r0,LSL #3
        0x080021fe:    493b        ;I      LDR      r1,[pc,#236] ; [0x80022ec] = 0x200000bc
        0x08002200:    eb010080    ....    ADD      r0,r1,r0,LSL #2
        0x08002204:    f8c09010    ....    STR      r9,[r0,#0x10]
        0x08002208:    ea4f008a    O...    LSL      r0,r10,#2
        0x0800220c:    f000fd94    ....    BL       mini_malloc ; 0x8002d38
        0x08002210:    4929        )I      LDR      r1,[pc,#164] ; [0x80022b8] = 0x2000003e
        0x08002212:    8809        ..      LDRH     r1,[r1,#0]
        0x08002214:    eb010241    ..A.    ADD      r2,r1,r1,LSL #1
        0x08002218:    eb0201c1    ....    ADD      r1,r2,r1,LSL #3
        0x0800221c:    4a33        3J      LDR      r2,[pc,#204] ; [0x80022ec] = 0x200000bc
        0x0800221e:    eb020181    ....    ADD      r1,r2,r1,LSL #2
        0x08002222:    6188        .a      STR      r0,[r1,#0x18]
        0x08002224:    4824        $H      LDR      r0,[pc,#144] ; [0x80022b8] = 0x2000003e
        0x08002226:    8800        ..      LDRH     r0,[r0,#0]
        0x08002228:    eb000140    ..@.    ADD      r1,r0,r0,LSL #1
        0x0800222c:    eb0100c0    ....    ADD      r0,r1,r0,LSL #3
        0x08002230:    4611        .F      MOV      r1,r2
        0x08002232:    eb010080    ....    ADD      r0,r1,r0,LSL #2
        0x08002236:    f8a0a01c    ....    STRH     r10,[r0,#0x1c]
        0x0800223a:    491f        .I      LDR      r1,[pc,#124] ; [0x80022b8] = 0x2000003e
        0x0800223c:    8809        ..      LDRH     r1,[r1,#0]
        0x0800223e:    eb010241    ..A.    ADD      r2,r1,r1,LSL #1
        0x08002242:    eb0201c1    ....    ADD      r1,r2,r1,LSL #3
        0x08002246:    4a29        )J      LDR      r2,[pc,#164] ; [0x80022ec] = 0x200000bc
        0x08002248:    eb020181    ....    ADD      r1,r2,r1,LSL #2
        0x0800224c:    980d        ..      LDR      r0,[sp,#0x34]
        0x0800224e:    6208        .b      STR      r0,[r1,#0x20]
        0x08002250:    4819        .H      LDR      r0,[pc,#100] ; [0x80022b8] = 0x2000003e
        0x08002252:    8800        ..      LDRH     r0,[r0,#0]
        0x08002254:    eb000140    ..@.    ADD      r1,r0,r0,LSL #1
        0x08002258:    eb0100c0    ....    ADD      r0,r1,r0,LSL #3
        0x0800225c:    4611        .F      MOV      r1,r2
        0x0800225e:    eb010080    ....    ADD      r0,r1,r0,LSL #2
        0x08002262:    6980        .i      LDR      r0,[r0,#0x18]
        0x08002264:    b318        ..      CBZ      r0,0x80022ae ; Task_Create + 378
        0x08002266:    2400        .$      MOVS     r4,#0
        0x08002268:    e00d        ..      B        0x8002286 ; Task_Create + 338
        0x0800226a:    4821        !H      LDR      r0,[pc,#132] ; [0x80022f0] = 0xdeadbeef
        0x0800226c:    4912        .I      LDR      r1,[pc,#72] ; [0x80022b8] = 0x2000003e
        0x0800226e:    8809        ..      LDRH     r1,[r1,#0]
        0x08002270:    eb010241    ..A.    ADD      r2,r1,r1,LSL #1
        0x08002274:    eb0201c1    ....    ADD      r1,r2,r1,LSL #3
        0x08002278:    4a1c        .J      LDR      r2,[pc,#112] ; [0x80022ec] = 0x200000bc
        0x0800227a:    eb020181    ....    ADD      r1,r2,r1,LSL #2
        0x0800227e:    6989        .i      LDR      r1,[r1,#0x18]
        0x08002280:    f8410024    A.$.    STR      r0,[r1,r4,LSL #2]
        0x08002284:    1c64        d.      ADDS     r4,r4,#1
        0x08002286:    480c        .H      LDR      r0,[pc,#48] ; [0x80022b8] = 0x2000003e
        0x08002288:    8800        ..      LDRH     r0,[r0,#0]
        0x0800228a:    eb000140    ..@.    ADD      r1,r0,r0,LSL #1
        0x0800228e:    eb0100c0    ....    ADD      r0,r1,r0,LSL #3
        0x08002292:    4916        .I      LDR      r1,[pc,#88] ; [0x80022ec] = 0x200000bc
        0x08002294:    eb010080    ....    ADD      r0,r1,r0,LSL #2
        0x08002298:    8b80        ..      LDRH     r0,[r0,#0x1c]
        0x0800229a:    42a0        .B      CMP      r0,r4
        0x0800229c:    d8e5        ..      BHI      0x800226a ; Task_Create + 310
        0x0800229e:    4806        .H      LDR      r0,[pc,#24] ; [0x80022b8] = 0x2000003e
        0x080022a0:    8800        ..      LDRH     r0,[r0,#0]
        0x080022a2:    1c40        @.      ADDS     r0,r0,#1
        0x080022a4:    4904        .I      LDR      r1,[pc,#16] ; [0x80022b8] = 0x2000003e
        0x080022a6:    8008        ..      STRH     r0,[r1,#0]
        0x080022a8:    2001        .       MOVS     r0,#1
        0x080022aa:    e8bd9ff0    ....    POP      {r4-r12,pc}
        0x080022ae:    a011        ..      ADR      r0,{pc}+0x46 ; 0x80022f4
        0x080022b0:    f000fd9e    ....    BL       mini_printf ; 0x8002df0
        0x080022b4:    2000        .       MOVS     r0,#0
        0x080022b6:    e7f8        ..      B        0x80022aa ; Task_Create + 374
    $d
        0x080022b8:    2000003e    >..     DCD    536870974
        0x080022bc:    696e696d    mini    DCD    1768843629
        0x080022c0:    534f5452    RTOS    DCD    1397707858
        0x080022c4:    72654b5c    \Ker    DCD    1919241052
        0x080022c8:    5c6c656e    nel\    DCD    1550607726
        0x080022cc:    5c637253    Src\    DCD    1550021203
        0x080022d0:    6e72656b    kern    DCD    1852990827
        0x080022d4:    632e6c65    el.c    DCD    1663986789
        0x080022d8:    00000000    ....    DCD    0
        0x080022dc:    6f727245    Erro    DCD    1869771333
        0x080022e0:    73253a72    r:%s    DCD    1931819634
        0x080022e4:    0d64252c    ,%d.    DCD    224666924
        0x080022e8:    0000000a    ....    DCD    10
        0x080022ec:    200000bc    ...     DCD    536871100
        0x080022f0:    deadbeef    ....    DCD    3735928559
        0x080022f4:    20746f4e    Not     DCD    544501582
        0x080022f8:    756f6e65    enou    DCD    1970237029
        0x080022fc:    6d206867    gh m    DCD    1830840423
        0x08002300:    726f6d65    emor    DCD    1919905125
        0x08002304:    6f662079    y fo    DCD    1868963961
        0x08002308:    61742072    r ta    DCD    1635000434
        0x0800230c:    73206b73    sk s    DCD    1931504499
        0x08002310:    6b636174    tack    DCD    1801675124
        0x08002314:    000a0d21    !...    DCD    658721
    $t
    i.Task_list_init
    Task_list_init
        0x08002318:    b510        ..      PUSH     {r4,lr}
        0x0800231a:    482b        +H      LDR      r0,[pc,#172] ; [0x80023c8] = 0x200000bc
        0x0800231c:    492b        +I      LDR      r1,[pc,#172] ; [0x80023cc] = 0x20000024
        0x0800231e:    6008        .`      STR      r0,[r1,#0]
        0x08002320:    492b        +I      LDR      r1,[pc,#172] ; [0x80023d0] = 0x20000028
        0x08002322:    6008        .`      STR      r0,[r1,#0]
        0x08002324:    2400        .$      MOVS     r4,#0
        0x08002326:    e020         .      B        0x800236a ; Task_list_init + 82
        0x08002328:    1c60        `.      ADDS     r0,r4,#1
        0x0800232a:    eb000140    ..@.    ADD      r1,r0,r0,LSL #1
        0x0800232e:    eb0100c0    ....    ADD      r0,r1,r0,LSL #3
        0x08002332:    4925        %I      LDR      r1,[pc,#148] ; [0x80023c8] = 0x200000bc
        0x08002334:    eb010080    ....    ADD      r0,r1,r0,LSL #2
        0x08002338:    eb040144    ..D.    ADD      r1,r4,r4,LSL #1
        0x0800233c:    eb0101c4    ....    ADD      r1,r1,r4,LSL #3
        0x08002340:    4a21        !J      LDR      r2,[pc,#132] ; [0x80023c8] = 0x200000bc
        0x08002342:    eb020181    ....    ADD      r1,r2,r1,LSL #2
        0x08002346:    6248        Hb      STR      r0,[r1,#0x24]
        0x08002348:    1c60        `.      ADDS     r0,r4,#1
        0x0800234a:    eb000140    ..@.    ADD      r1,r0,r0,LSL #1
        0x0800234e:    eb0100c0    ....    ADD      r0,r1,r0,LSL #3
        0x08002352:    4611        .F      MOV      r1,r2
        0x08002354:    eb010080    ....    ADD      r0,r1,r0,LSL #2
        0x08002358:    eb040144    ..D.    ADD      r1,r4,r4,LSL #1
        0x0800235c:    eb0101c4    ....    ADD      r1,r1,r4,LSL #3
        0x08002360:    eb020181    ....    ADD      r1,r2,r1,LSL #2
        0x08002364:    6288        .b      STR      r0,[r1,#0x28]
        0x08002366:    1c60        `.      ADDS     r0,r4,#1
        0x08002368:    b284        ..      UXTH     r4,r0
        0x0800236a:    2c04        .,      CMP      r4,#4
        0x0800236c:    dbdc        ..      BLT      0x8002328 ; Task_list_init + 16
        0x0800236e:    2000        .       MOVS     r0,#0
        0x08002370:    eb040144    ..D.    ADD      r1,r4,r4,LSL #1
        0x08002374:    eb0101c4    ....    ADD      r1,r1,r4,LSL #3
        0x08002378:    4a13        .J      LDR      r2,[pc,#76] ; [0x80023c8] = 0x200000bc
        0x0800237a:    eb020181    ....    ADD      r1,r2,r1,LSL #2
        0x0800237e:    6248        Hb      STR      r0,[r1,#0x24]
        0x08002380:    eb040144    ..D.    ADD      r1,r4,r4,LSL #1
        0x08002384:    eb0101c4    ....    ADD      r1,r1,r4,LSL #3
        0x08002388:    eb020181    ....    ADD      r1,r2,r1,LSL #2
        0x0800238c:    6288        .b      STR      r0,[r1,#0x28]
        0x0800238e:    2400        .$      MOVS     r4,#0
        0x08002390:    e017        ..      B        0x80023c2 ; Task_list_init + 170
        0x08002392:    eb040044    ..D.    ADD      r0,r4,r4,LSL #1
        0x08002396:    eb0000c4    ....    ADD      r0,r0,r4,LSL #3
        0x0800239a:    4a0b        .J      LDR      r2,[pc,#44] ; [0x80023c8] = 0x200000bc
        0x0800239c:    eb020180    ....    ADD      r1,r2,r0,LSL #2
        0x080023a0:    2201        ."      MOVS     r2,#1
        0x080023a2:    4610        .F      MOV      r0,r2
        0x080023a4:    f7fefcae    ....    BL       List_insert ; 0x8000d04
        0x080023a8:    eb040044    ..D.    ADD      r0,r4,r4,LSL #1
        0x080023ac:    eb0000c4    ....    ADD      r0,r0,r4,LSL #3
        0x080023b0:    4a05        .J      LDR      r2,[pc,#20] ; [0x80023c8] = 0x200000bc
        0x080023b2:    eb020180    ....    ADD      r1,r2,r0,LSL #2
        0x080023b6:    2201        ."      MOVS     r2,#1
        0x080023b8:    2000        .       MOVS     r0,#0
        0x080023ba:    f7fefca3    ....    BL       List_insert ; 0x8000d04
        0x080023be:    1c60        `.      ADDS     r0,r4,#1
        0x080023c0:    b284        ..      UXTH     r4,r0
        0x080023c2:    2c05        .,      CMP      r4,#5
        0x080023c4:    dbe5        ..      BLT      0x8002392 ; Task_list_init + 122
        0x080023c6:    bd10        ..      POP      {r4,pc}
    $d
        0x080023c8:    200000bc    ...     DCD    536871100
        0x080023cc:    20000024    $..     DCD    536870948
        0x080023d0:    20000028    (..     DCD    536870952
    $t
    i.Timer0_callback
    Timer0_callback
        0x080023d4:    b510        ..      PUSH     {r4,lr}
        0x080023d6:    a002        ..      ADR      r0,{pc}+0xa ; 0x80023e0
        0x080023d8:    f000fd0a    ....    BL       mini_printf ; 0x8002df0
        0x080023dc:    bd10        ..      POP      {r4,pc}
    $d
        0x080023de:    0000        ..      DCW    0
        0x080023e0:    656d6954    Time    DCD    1701669204
        0x080023e4:    635f3072    r0_c    DCD    1667182706
        0x080023e8:    626c6c61    allb    DCD    1651272801
        0x080023ec:    206b6361    ack     DCD    543908705
        0x080023f0:    72207369    is r    DCD    1914729321
        0x080023f4:    696e6e75    unni    DCD    1768844917
        0x080023f8:    0a0d676e    ng..    DCD    168650606
        0x080023fc:    00000000    ....    DCD    0
    $t
    i.Timer1_callback
    Timer1_callback
        0x08002400:    b510        ..      PUSH     {r4,lr}
        0x08002402:    a002        ..      ADR      r0,{pc}+0xa ; 0x800240c
        0x08002404:    f000fcf4    ....    BL       mini_printf ; 0x8002df0
        0x08002408:    bd10        ..      POP      {r4,pc}
    $d
        0x0800240a:    0000        ..      DCW    0
        0x0800240c:    656d6954    Time    DCD    1701669204
        0x08002410:    635f3172    r1_c    DCD    1667182962
        0x08002414:    626c6c61    allb    DCD    1651272801
        0x08002418:    206b6361    ack     DCD    543908705
        0x0800241c:    72207369    is r    DCD    1914729321
        0x08002420:    696e6e75    unni    DCD    1768844917
        0x08002424:    0a0d676e    ng..    DCD    168650606
        0x08002428:    00000000    ....    DCD    0
    $t
    i.UART_putch
    UART_putch
        0x0800242c:    b510        ..      PUSH     {r4,lr}
        0x0800242e:    4604        .F      MOV      r4,r0
        0x08002430:    4621        !F      MOV      r1,r4
        0x08002432:    4805        .H      LDR      r0,[pc,#20] ; [0x8002448] = 0x40013800
        0x08002434:    f000f945    ..E.    BL       USART_SendData ; 0x80026c2
        0x08002438:    bf00        ..      NOP      
        0x0800243a:    2180        .!      MOVS     r1,#0x80
        0x0800243c:    4802        .H      LDR      r0,[pc,#8] ; [0x8002448] = 0x40013800
        0x0800243e:    f000f873    ..s.    BL       USART_GetFlagStatus ; 0x8002528
        0x08002442:    2800        .(      CMP      r0,#0
        0x08002444:    d0f9        ..      BEQ      0x800243a ; UART_putch + 14
        0x08002446:    bd10        ..      POP      {r4,pc}
    $d
        0x08002448:    40013800    .8.@    DCD    1073821696
    $t
    i.USART1_Config
    USART1_Config
        0x0800244c:    b500        ..      PUSH     {lr}
        0x0800244e:    b085        ..      SUB      sp,sp,#0x14
        0x08002450:    2101        .!      MOVS     r1,#1
        0x08002452:    f2440004    D...    MOV      r0,#0x4004
        0x08002456:    f7fefee7    ....    BL       RCC_APB2PeriphClockCmd ; 0x8001228
        0x0800245a:    f44f7000    O..p    MOV      r0,#0x200
        0x0800245e:    f8ad0010    ....    STRH     r0,[sp,#0x10]
        0x08002462:    2018        .       MOVS     r0,#0x18
        0x08002464:    f88d0013    ....    STRB     r0,[sp,#0x13]
        0x08002468:    2003        .       MOVS     r0,#3
        0x0800246a:    f88d0012    ....    STRB     r0,[sp,#0x12]
        0x0800246e:    a904        ..      ADD      r1,sp,#0x10
        0x08002470:    4817        .H      LDR      r0,[pc,#92] ; [0x80024d0] = 0x40010800
        0x08002472:    f7fefa96    ....    BL       GPIO_Init ; 0x80009a2
        0x08002476:    f44f6080    O..`    MOV      r0,#0x400
        0x0800247a:    f8ad0010    ....    STRH     r0,[sp,#0x10]
        0x0800247e:    2004        .       MOVS     r0,#4
        0x08002480:    f88d0013    ....    STRB     r0,[sp,#0x13]
        0x08002484:    a904        ..      ADD      r1,sp,#0x10
        0x08002486:    4812        .H      LDR      r0,[pc,#72] ; [0x80024d0] = 0x40010800
        0x08002488:    f7fefa8b    ....    BL       GPIO_Init ; 0x80009a2
        0x0800248c:    f44f30e1    O..0    MOV      r0,#0x1c200
        0x08002490:    9000        ..      STR      r0,[sp,#0]
        0x08002492:    2000        .       MOVS     r0,#0
        0x08002494:    f8ad0004    ....    STRH     r0,[sp,#4]
        0x08002498:    f8ad0006    ....    STRH     r0,[sp,#6]
        0x0800249c:    f8ad0008    ....    STRH     r0,[sp,#8]
        0x080024a0:    f8ad000c    ....    STRH     r0,[sp,#0xc]
        0x080024a4:    200c        .       MOVS     r0,#0xc
        0x080024a6:    f8ad000a    ....    STRH     r0,[sp,#0xa]
        0x080024aa:    4669        iF      MOV      r1,sp
        0x080024ac:    4809        .H      LDR      r0,[pc,#36] ; [0x80024d4] = 0x40013800
        0x080024ae:    f000f897    ....    BL       USART_Init ; 0x80025e0
        0x080024b2:    2201        ."      MOVS     r2,#1
        0x080024b4:    f2405125    @.%Q    MOV      r1,#0x525
        0x080024b8:    4806        .H      LDR      r0,[pc,#24] ; [0x80024d4] = 0x40013800
        0x080024ba:    f000f86c    ..l.    BL       USART_ITConfig ; 0x8002596
        0x080024be:    2101        .!      MOVS     r1,#1
        0x080024c0:    4804        .H      LDR      r0,[pc,#16] ; [0x80024d4] = 0x40013800
        0x080024c2:    f000f825    ..%.    BL       USART_Cmd ; 0x8002510
        0x080024c6:    f7fefcde    ....    BL       NVIC_Configuration ; 0x8000e86
        0x080024ca:    b005        ..      ADD      sp,sp,#0x14
        0x080024cc:    bd00        ..      POP      {pc}
    $d
        0x080024ce:    0000        ..      DCW    0
        0x080024d0:    40010800    ...@    DCD    1073809408
        0x080024d4:    40013800    .8.@    DCD    1073821696
    $t
    i.USART1_IRQHandler
    USART1_IRQHandler
        0x080024d8:    b510        ..      PUSH     {r4,lr}
        0x080024da:    f2405125    @.%Q    MOV      r1,#0x525
        0x080024de:    4807        .H      LDR      r0,[pc,#28] ; [0x80024fc] = 0x40013800
        0x080024e0:    f000f82f    ../.    BL       USART_GetITStatus ; 0x8002542
        0x080024e4:    b148        H.      CBZ      r0,0x80024fa ; USART1_IRQHandler + 34
        0x080024e6:    4805        .H      LDR      r0,[pc,#20] ; [0x80024fc] = 0x40013800
        0x080024e8:    f000f8e6    ....    BL       USART_ReceiveData ; 0x80026b8
        0x080024ec:    4904        .I      LDR      r1,[pc,#16] ; [0x8002500] = 0x20000014
        0x080024ee:    7008        .p      STRB     r0,[r1,#0]
        0x080024f0:    4608        .F      MOV      r0,r1
        0x080024f2:    7801        .x      LDRB     r1,[r0,#0]
        0x080024f4:    a003        ..      ADR      r0,{pc}+0x10 ; 0x8002504
        0x080024f6:    f000fc7b    ..{.    BL       mini_printf ; 0x8002df0
        0x080024fa:    bd10        ..      POP      {r4,pc}
    $d
        0x080024fc:    40013800    .8.@    DCD    1073821696
        0x08002500:    20000014    ...     DCD    536870932
        0x08002504:    20444d43    CMD     DCD    541347139
        0x08002508:    6325203d    = %c    DCD    1663377469
        0x0800250c:    00000a0d    ....    DCD    2573
    $t
    i.USART_Cmd
    USART_Cmd
        0x08002510:    b121        !.      CBZ      r1,0x800251c ; USART_Cmd + 12
        0x08002512:    8982        ..      LDRH     r2,[r0,#0xc]
        0x08002514:    f4425200    B..R    ORR      r2,r2,#0x2000
        0x08002518:    8182        ..      STRH     r2,[r0,#0xc]
        0x0800251a:    e004        ..      B        0x8002526 ; USART_Cmd + 22
        0x0800251c:    8982        ..      LDRH     r2,[r0,#0xc]
        0x0800251e:    f64d73ff    M..s    MOV      r3,#0xdfff
        0x08002522:    401a        .@      ANDS     r2,r2,r3
        0x08002524:    8182        ..      STRH     r2,[r0,#0xc]
        0x08002526:    4770        pG      BX       lr
    i.USART_GetFlagStatus
    USART_GetFlagStatus
        0x08002528:    4602        .F      MOV      r2,r0
        0x0800252a:    2000        .       MOVS     r0,#0
        0x0800252c:    f5b17f00    ....    CMP      r1,#0x200
        0x08002530:    d100        ..      BNE      0x8002534 ; USART_GetFlagStatus + 12
        0x08002532:    bf00        ..      NOP      
        0x08002534:    8813        ..      LDRH     r3,[r2,#0]
        0x08002536:    400b        .@      ANDS     r3,r3,r1
        0x08002538:    b10b        ..      CBZ      r3,0x800253e ; USART_GetFlagStatus + 22
        0x0800253a:    2001        .       MOVS     r0,#1
        0x0800253c:    e000        ..      B        0x8002540 ; USART_GetFlagStatus + 24
        0x0800253e:    2000        .       MOVS     r0,#0
        0x08002540:    4770        pG      BX       lr
    i.USART_GetITStatus
    USART_GetITStatus
        0x08002542:    b570        p.      PUSH     {r4-r6,lr}
        0x08002544:    4602        .F      MOV      r2,r0
        0x08002546:    2400        .$      MOVS     r4,#0
        0x08002548:    2300        .#      MOVS     r3,#0
        0x0800254a:    2500        .%      MOVS     r5,#0
        0x0800254c:    2000        .       MOVS     r0,#0
        0x0800254e:    f640166a    @.j.    MOV      r6,#0x96a
        0x08002552:    42b1        .B      CMP      r1,r6
        0x08002554:    d100        ..      BNE      0x8002558 ; USART_GetITStatus + 22
        0x08002556:    bf00        ..      NOP      
        0x08002558:    f3c11542    ..B.    UBFX     r5,r1,#5,#3
        0x0800255c:    f001031f    ....    AND      r3,r1,#0x1f
        0x08002560:    2601        .&      MOVS     r6,#1
        0x08002562:    fa06f303    ....    LSL      r3,r6,r3
        0x08002566:    2d01        .-      CMP      r5,#1
        0x08002568:    d102        ..      BNE      0x8002570 ; USART_GetITStatus + 46
        0x0800256a:    8996        ..      LDRH     r6,[r2,#0xc]
        0x0800256c:    4033        3@      ANDS     r3,r3,r6
        0x0800256e:    e006        ..      B        0x800257e ; USART_GetITStatus + 60
        0x08002570:    2d02        .-      CMP      r5,#2
        0x08002572:    d102        ..      BNE      0x800257a ; USART_GetITStatus + 56
        0x08002574:    8a16        ..      LDRH     r6,[r2,#0x10]
        0x08002576:    4033        3@      ANDS     r3,r3,r6
        0x08002578:    e001        ..      B        0x800257e ; USART_GetITStatus + 60
        0x0800257a:    8a96        ..      LDRH     r6,[r2,#0x14]
        0x0800257c:    4033        3@      ANDS     r3,r3,r6
        0x0800257e:    120c        ..      ASRS     r4,r1,#8
        0x08002580:    2601        .&      MOVS     r6,#1
        0x08002582:    fa06f404    ....    LSL      r4,r6,r4
        0x08002586:    8816        ..      LDRH     r6,[r2,#0]
        0x08002588:    4034        4@      ANDS     r4,r4,r6
        0x0800258a:    b113        ..      CBZ      r3,0x8002592 ; USART_GetITStatus + 80
        0x0800258c:    b10c        ..      CBZ      r4,0x8002592 ; USART_GetITStatus + 80
        0x0800258e:    2001        .       MOVS     r0,#1
        0x08002590:    e000        ..      B        0x8002594 ; USART_GetITStatus + 82
        0x08002592:    2000        .       MOVS     r0,#0
        0x08002594:    bd70        p.      POP      {r4-r6,pc}
    i.USART_ITConfig
    USART_ITConfig
        0x08002596:    b5f0        ..      PUSH     {r4-r7,lr}
        0x08002598:    4603        .F      MOV      r3,r0
        0x0800259a:    2400        .$      MOVS     r4,#0
        0x0800259c:    2600        .&      MOVS     r6,#0
        0x0800259e:    2500        .%      MOVS     r5,#0
        0x080025a0:    2000        .       MOVS     r0,#0
        0x080025a2:    f640176a    @.j.    MOV      r7,#0x96a
        0x080025a6:    42b9        .B      CMP      r1,r7
        0x080025a8:    d100        ..      BNE      0x80025ac ; USART_ITConfig + 22
        0x080025aa:    bf00        ..      NOP      
        0x080025ac:    4618        .F      MOV      r0,r3
        0x080025ae:    f3c11442    ..B.    UBFX     r4,r1,#5,#3
        0x080025b2:    f001061f    ....    AND      r6,r1,#0x1f
        0x080025b6:    2701        .'      MOVS     r7,#1
        0x080025b8:    fa07f506    ....    LSL      r5,r7,r6
        0x080025bc:    2c01        .,      CMP      r4,#1
        0x080025be:    d101        ..      BNE      0x80025c4 ; USART_ITConfig + 46
        0x080025c0:    300c        .0      ADDS     r0,r0,#0xc
        0x080025c2:    e004        ..      B        0x80025ce ; USART_ITConfig + 56
        0x080025c4:    2c02        .,      CMP      r4,#2
        0x080025c6:    d101        ..      BNE      0x80025cc ; USART_ITConfig + 54
        0x080025c8:    3010        .0      ADDS     r0,r0,#0x10
        0x080025ca:    e000        ..      B        0x80025ce ; USART_ITConfig + 56
        0x080025cc:    3014        .0      ADDS     r0,r0,#0x14
        0x080025ce:    b11a        ..      CBZ      r2,0x80025d8 ; USART_ITConfig + 66
        0x080025d0:    6807        .h      LDR      r7,[r0,#0]
        0x080025d2:    432f        /C      ORRS     r7,r7,r5
        0x080025d4:    6007        .`      STR      r7,[r0,#0]
        0x080025d6:    e002        ..      B        0x80025de ; USART_ITConfig + 72
        0x080025d8:    6807        .h      LDR      r7,[r0,#0]
        0x080025da:    43af        .C      BICS     r7,r7,r5
        0x080025dc:    6007        .`      STR      r7,[r0,#0]
        0x080025de:    bdf0        ..      POP      {r4-r7,pc}
    i.USART_Init
    USART_Init
        0x080025e0:    e92d47f0    -..G    PUSH     {r4-r10,lr}
        0x080025e4:    b086        ..      SUB      sp,sp,#0x18
        0x080025e6:    4605        .F      MOV      r5,r0
        0x080025e8:    460e        .F      MOV      r6,r1
        0x080025ea:    2400        .$      MOVS     r4,#0
        0x080025ec:    46a2        .F      MOV      r10,r4
        0x080025ee:    bf00        ..      NOP      
        0x080025f0:    46a1        .F      MOV      r9,r4
        0x080025f2:    2700        .'      MOVS     r7,#0
        0x080025f4:    89b0        ..      LDRH     r0,[r6,#0xc]
        0x080025f6:    b100        ..      CBZ      r0,0x80025fa ; USART_Init + 26
        0x080025f8:    bf00        ..      NOP      
        0x080025fa:    462f        /F      MOV      r7,r5
        0x080025fc:    8a2c        ,.      LDRH     r4,[r5,#0x10]
        0x080025fe:    f64c70ff    L..p    MOV      r0,#0xcfff
        0x08002602:    4004        .@      ANDS     r4,r4,r0
        0x08002604:    88f0        ..      LDRH     r0,[r6,#6]
        0x08002606:    4304        .C      ORRS     r4,r4,r0
        0x08002608:    822c        ,.      STRH     r4,[r5,#0x10]
        0x0800260a:    89ac        ..      LDRH     r4,[r5,#0xc]
        0x0800260c:    f64e10f3    N...    MOV      r0,#0xe9f3
        0x08002610:    4004        .@      ANDS     r4,r4,r0
        0x08002612:    88b0        ..      LDRH     r0,[r6,#4]
        0x08002614:    8931        1.      LDRH     r1,[r6,#8]
        0x08002616:    4308        .C      ORRS     r0,r0,r1
        0x08002618:    8971        q.      LDRH     r1,[r6,#0xa]
        0x0800261a:    4308        .C      ORRS     r0,r0,r1
        0x0800261c:    4304        .C      ORRS     r4,r4,r0
        0x0800261e:    81ac        ..      STRH     r4,[r5,#0xc]
        0x08002620:    8aac        ..      LDRH     r4,[r5,#0x14]
        0x08002622:    f64f40ff    O..@    MOV      r0,#0xfcff
        0x08002626:    4004        .@      ANDS     r4,r4,r0
        0x08002628:    89b0        ..      LDRH     r0,[r6,#0xc]
        0x0800262a:    4304        .C      ORRS     r4,r4,r0
        0x0800262c:    82ac        ..      STRH     r4,[r5,#0x14]
        0x0800262e:    a801        ..      ADD      r0,sp,#4
        0x08002630:    f7fefe0a    ....    BL       RCC_GetClocksFreq ; 0x8001248
        0x08002634:    481f        .H      LDR      r0,[pc,#124] ; [0x80026b4] = 0x40013800
        0x08002636:    4287        .B      CMP      r7,r0
        0x08002638:    d102        ..      BNE      0x8002640 ; USART_Init + 96
        0x0800263a:    f8dda010    ....    LDR      r10,[sp,#0x10]
        0x0800263e:    e001        ..      B        0x8002644 ; USART_Init + 100
        0x08002640:    f8dda00c    ....    LDR      r10,[sp,#0xc]
        0x08002644:    89a8        ..      LDRH     r0,[r5,#0xc]
        0x08002646:    f4004000    ...@    AND      r0,r0,#0x8000
        0x0800264a:    b140        @.      CBZ      r0,0x800265e ; USART_Init + 126
        0x0800264c:    eb0a00ca    ....    ADD      r0,r10,r10,LSL #3
        0x08002650:    eb00100a    ....    ADD      r0,r0,r10,LSL #4
        0x08002654:    6831        1h      LDR      r1,[r6,#0]
        0x08002656:    0049        I.      LSLS     r1,r1,#1
        0x08002658:    fbb0f8f1    ....    UDIV     r8,r0,r1
        0x0800265c:    e007        ..      B        0x800266e ; USART_Init + 142
        0x0800265e:    eb0a00ca    ....    ADD      r0,r10,r10,LSL #3
        0x08002662:    eb00100a    ....    ADD      r0,r0,r10,LSL #4
        0x08002666:    6831        1h      LDR      r1,[r6,#0]
        0x08002668:    0089        ..      LSLS     r1,r1,#2
        0x0800266a:    fbb0f8f1    ....    UDIV     r8,r0,r1
        0x0800266e:    2064        d       MOVS     r0,#0x64
        0x08002670:    fbb8f0f0    ....    UDIV     r0,r8,r0
        0x08002674:    0104        ..      LSLS     r4,r0,#4
        0x08002676:    0920         .      LSRS     r0,r4,#4
        0x08002678:    2164        d!      MOVS     r1,#0x64
        0x0800267a:    fb018910    ....    MLS      r9,r1,r0,r8
        0x0800267e:    89a8        ..      LDRH     r0,[r5,#0xc]
        0x08002680:    f4004000    ...@    AND      r0,r0,#0x8000
        0x08002684:    b140        @.      CBZ      r0,0x8002698 ; USART_Init + 184
        0x08002686:    2032        2       MOVS     r0,#0x32
        0x08002688:    eb0000c9    ....    ADD      r0,r0,r9,LSL #3
        0x0800268c:    fbb0f0f1    ....    UDIV     r0,r0,r1
        0x08002690:    f0000007    ....    AND      r0,r0,#7
        0x08002694:    4304        .C      ORRS     r4,r4,r0
        0x08002696:    e008        ..      B        0x80026aa ; USART_Init + 202
        0x08002698:    2032        2       MOVS     r0,#0x32
        0x0800269a:    eb001009    ....    ADD      r0,r0,r9,LSL #4
        0x0800269e:    2164        d!      MOVS     r1,#0x64
        0x080026a0:    fbb0f0f1    ....    UDIV     r0,r0,r1
        0x080026a4:    f000000f    ....    AND      r0,r0,#0xf
        0x080026a8:    4304        .C      ORRS     r4,r4,r0
        0x080026aa:    812c        ,.      STRH     r4,[r5,#8]
        0x080026ac:    b006        ..      ADD      sp,sp,#0x18
        0x080026ae:    e8bd87f0    ....    POP      {r4-r10,pc}
    $d
        0x080026b2:    0000        ..      DCW    0
        0x080026b4:    40013800    .8.@    DCD    1073821696
    $t
    i.USART_ReceiveData
    USART_ReceiveData
        0x080026b8:    4601        .F      MOV      r1,r0
        0x080026ba:    8888        ..      LDRH     r0,[r1,#4]
        0x080026bc:    f3c00008    ....    UBFX     r0,r0,#0,#9
        0x080026c0:    4770        pG      BX       lr
    i.USART_SendData
    USART_SendData
        0x080026c2:    f3c10208    ....    UBFX     r2,r1,#0,#9
        0x080026c6:    8082        ..      STRH     r2,[r0,#4]
        0x080026c8:    4770        pG      BX       lr
    i.UsageFault_Handler
    UsageFault_Handler
        0x080026ca:    bf00        ..      NOP      
        0x080026cc:    e7fe        ..      B        0x80026cc ; UsageFault_Handler + 2
    i.__scatterload_copy
    __scatterload_copy
        0x080026ce:    e002        ..      B        0x80026d6 ; __scatterload_copy + 8
        0x080026d0:    c808        ..      LDM      r0!,{r3}
        0x080026d2:    1f12        ..      SUBS     r2,r2,#4
        0x080026d4:    c108        ..      STM      r1!,{r3}
        0x080026d6:    2a00        .*      CMP      r2,#0
        0x080026d8:    d1fa        ..      BNE      0x80026d0 ; __scatterload_copy + 2
        0x080026da:    4770        pG      BX       lr
    i.__scatterload_null
    __scatterload_null
        0x080026dc:    4770        pG      BX       lr
    i.__scatterload_zeroinit
    __scatterload_zeroinit
        0x080026de:    2000        .       MOVS     r0,#0
        0x080026e0:    e001        ..      B        0x80026e6 ; __scatterload_zeroinit + 8
        0x080026e2:    c101        ..      STM      r1!,{r0}
        0x080026e4:    1f12        ..      SUBS     r2,r2,#4
        0x080026e6:    2a00        .*      CMP      r2,#0
        0x080026e8:    d1fb        ..      BNE      0x80026e2 ; __scatterload_zeroinit + 4
        0x080026ea:    4770        pG      BX       lr
    i.data_format_switch
    data_format_switch
        0x080026ec:    b5f0        ..      PUSH     {r4-r7,lr}
        0x080026ee:    4603        .F      MOV      r3,r0
        0x080026f0:    460d        .F      MOV      r5,r1
        0x080026f2:    4614        .F      MOV      r4,r2
        0x080026f4:    462a        *F      MOV      r2,r5
        0x080026f6:    4629        )F      MOV      r1,r5
        0x080026f8:    b10d        ..      CBZ      r5,0x80026fe ; data_format_switch + 18
        0x080026fa:    2c02        .,      CMP      r4,#2
        0x080026fc:    d201        ..      BCS      0x8002702 ; data_format_switch + 22
        0x080026fe:    2001        .       MOVS     r0,#1
        0x08002700:    bdf0        ..      POP      {r4-r7,pc}
        0x08002702:    2b00        .+      CMP      r3,#0
        0x08002704:    da06        ..      BGE      0x8002714 ; data_format_switch + 40
        0x08002706:    2c0a        .,      CMP      r4,#0xa
        0x08002708:    d104        ..      BNE      0x8002714 ; data_format_switch + 40
        0x0800270a:    202d        -       MOVS     r0,#0x2d
        0x0800270c:    f8010b01    ....    STRB     r0,[r1],#1
        0x08002710:    1c52        R.      ADDS     r2,r2,#1
        0x08002712:    425b        [B      RSBS     r3,r3,#0
        0x08002714:    bf00        ..      NOP      
        0x08002716:    fbb3f0f4    ....    UDIV     r0,r3,r4
        0x0800271a:    fb043610    ...6    MLS      r6,r4,r0,r3
        0x0800271e:    fbb3f3f4    ....    UDIV     r3,r3,r4
        0x08002722:    2e0a        ..      CMP      r6,#0xa
        0x08002724:    da04        ..      BGE      0x8002730 ; data_format_switch + 68
        0x08002726:    f1060030    ..0.    ADD      r0,r6,#0x30
        0x0800272a:    f8010b01    ....    STRB     r0,[r1],#1
        0x0800272e:    e003        ..      B        0x8002738 ; data_format_switch + 76
        0x08002730:    f1060037    ..7.    ADD      r0,r6,#0x37
        0x08002734:    f8010b01    ....    STRB     r0,[r1],#1
        0x08002738:    2b00        .+      CMP      r3,#0
        0x0800273a:    d1ec        ..      BNE      0x8002716 ; data_format_switch + 42
        0x0800273c:    2000        .       MOVS     r0,#0
        0x0800273e:    7008        .p      STRB     r0,[r1,#0]
        0x08002740:    1e49        I.      SUBS     r1,r1,#1
        0x08002742:    e005        ..      B        0x8002750 ; data_format_switch + 100
        0x08002744:    780f        .x      LDRB     r7,[r1,#0]
        0x08002746:    7810        .x      LDRB     r0,[r2,#0]
        0x08002748:    7008        .p      STRB     r0,[r1,#0]
        0x0800274a:    7017        .p      STRB     r7,[r2,#0]
        0x0800274c:    1e49        I.      SUBS     r1,r1,#1
        0x0800274e:    1c52        R.      ADDS     r2,r2,#1
        0x08002750:    428a        .B      CMP      r2,r1
        0x08002752:    d9f7        ..      BLS      0x8002744 ; data_format_switch + 88
        0x08002754:    2000        .       MOVS     r0,#0
        0x08002756:    e7d3        ..      B        0x8002700 ; data_format_switch + 20
    i.device_close
    device_close
        0x08002758:    b570        p.      PUSH     {r4-r6,lr}
        0x0800275a:    4604        .F      MOV      r4,r0
        0x0800275c:    2500        .%      MOVS     r5,#0
        0x0800275e:    b10c        ..      CBZ      r4,0x8002764 ; device_close + 12
        0x08002760:    2001        .       MOVS     r0,#1
        0x08002762:    e000        ..      B        0x8002766 ; device_close + 14
        0x08002764:    2000        .       MOVS     r0,#0
        0x08002766:    b920         .      CBNZ     r0,0x8002772 ; device_close + 26
        0x08002768:    2292        ."      MOVS     r2,#0x92
        0x0800276a:    a107        ..      ADR      r1,{pc}+0x1e ; 0x8002788
        0x0800276c:    a00e        ..      ADR      r0,{pc}+0x3c ; 0x80027a8
        0x0800276e:    f000fb3f    ..?.    BL       mini_printf ; 0x8002df0
        0x08002772:    7920         y      LDRB     r0,[r4,#4]
        0x08002774:    b930        0.      CBNZ     r0,0x8002784 ; device_close + 44
        0x08002776:    6920         i      LDR      r0,[r4,#0x10]
        0x08002778:    b120         .      CBZ      r0,0x8002784 ; device_close + 44
        0x0800277a:    6920         i      LDR      r0,[r4,#0x10]
        0x0800277c:    4780        .G      BLX      r0
        0x0800277e:    2001        .       MOVS     r0,#1
        0x08002780:    7120         q      STRB     r0,[r4,#4]
        0x08002782:    2501        .%      MOVS     r5,#1
        0x08002784:    4628        (F      MOV      r0,r5
        0x08002786:    bd70        p.      POP      {r4-r6,pc}
    $d
        0x08002788:    696e696d    mini    DCD    1768843629
        0x0800278c:    534f5452    RTOS    DCD    1397707858
        0x08002790:    6972445c    \Dri    DCD    1769096284
        0x08002794:    5c726576    ver\    DCD    1551000950
        0x08002798:    5c637253    Src\    DCD    1550021203
        0x0800279c:    69766564    devi    DCD    1769366884
        0x080027a0:    632e6563    ce.c    DCD    1663984995
        0x080027a4:    00000000    ....    DCD    0
        0x080027a8:    6f727245    Erro    DCD    1869771333
        0x080027ac:    73253a72    r:%s    DCD    1931819634
        0x080027b0:    0d64252c    ,%d.    DCD    224666924
        0x080027b4:    0000000a    ....    DCD    10
    $t
    i.device_control
    device_control
        0x080027b8:    e92d41f0    -..A    PUSH     {r4-r8,lr}
        0x080027bc:    4604        .F      MOV      r4,r0
        0x080027be:    460d        .F      MOV      r5,r1
        0x080027c0:    4616        .F      MOV      r6,r2
        0x080027c2:    2700        .'      MOVS     r7,#0
        0x080027c4:    b10c        ..      CBZ      r4,0x80027ca ; device_control + 18
        0x080027c6:    2001        .       MOVS     r0,#1
        0x080027c8:    e000        ..      B        0x80027cc ; device_control + 20
        0x080027ca:    2000        .       MOVS     r0,#0
        0x080027cc:    b920         .      CBNZ     r0,0x80027d8 ; device_control + 32
        0x080027ce:    22b8        ."      MOVS     r2,#0xb8
        0x080027d0:    a107        ..      ADR      r1,{pc}+0x20 ; 0x80027f0
        0x080027d2:    a00f        ..      ADR      r0,{pc}+0x3e ; 0x8002810
        0x080027d4:    f000fb0c    ....    BL       mini_printf ; 0x8002df0
        0x080027d8:    7920         y      LDRB     r0,[r4,#4]
        0x080027da:    b930        0.      CBNZ     r0,0x80027ea ; device_control + 50
        0x080027dc:    69e0        .i      LDR      r0,[r4,#0x1c]
        0x080027de:    b120         .      CBZ      r0,0x80027ea ; device_control + 50
        0x080027e0:    4631        1F      MOV      r1,r6
        0x080027e2:    4628        (F      MOV      r0,r5
        0x080027e4:    69e2        .i      LDR      r2,[r4,#0x1c]
        0x080027e6:    4790        .G      BLX      r2
        0x080027e8:    2701        .'      MOVS     r7,#1
        0x080027ea:    4638        8F      MOV      r0,r7
        0x080027ec:    e8bd81f0    ....    POP      {r4-r8,pc}
    $d
        0x080027f0:    696e696d    mini    DCD    1768843629
        0x080027f4:    534f5452    RTOS    DCD    1397707858
        0x080027f8:    6972445c    \Dri    DCD    1769096284
        0x080027fc:    5c726576    ver\    DCD    1551000950
        0x08002800:    5c637253    Src\    DCD    1550021203
        0x08002804:    69766564    devi    DCD    1769366884
        0x08002808:    632e6563    ce.c    DCD    1663984995
        0x0800280c:    00000000    ....    DCD    0
        0x08002810:    6f727245    Erro    DCD    1869771333
        0x08002814:    73253a72    r:%s    DCD    1931819634
        0x08002818:    0d64252c    ,%d.    DCD    224666924
        0x0800281c:    0000000a    ....    DCD    10
    $t
    i.device_find
    device_find
        0x08002820:    b570        p.      PUSH     {r4-r6,lr}
        0x08002822:    4605        .F      MOV      r5,r0
        0x08002824:    2400        .$      MOVS     r4,#0
        0x08002826:    2600        .&      MOVS     r6,#0
        0x08002828:    b10d        ..      CBZ      r5,0x800282e ; device_find + 14
        0x0800282a:    2001        .       MOVS     r0,#1
        0x0800282c:    e000        ..      B        0x8002830 ; device_find + 16
        0x0800282e:    2000        .       MOVS     r0,#0
        0x08002830:    b920         .      CBNZ     r0,0x800283c ; device_find + 28
        0x08002832:    2227        '"      MOVS     r2,#0x27
        0x08002834:    a109        ..      ADR      r1,{pc}+0x28 ; 0x800285c
        0x08002836:    a011        ..      ADR      r0,{pc}+0x46 ; 0x800287c
        0x08002838:    f000fada    ....    BL       mini_printf ; 0x8002df0
        0x0800283c:    4813        .H      LDR      r0,[pc,#76] ; [0x800288c] = 0x20000054
        0x0800283e:    6804        .h      LDR      r4,[r0,#0]
        0x08002840:    e007        ..      B        0x8002852 ; device_find + 50
        0x08002842:    4629        )F      MOV      r1,r5
        0x08002844:    6820         h      LDR      r0,[r4,#0]
        0x08002846:    f000fbc9    ....    BL       mini_strcmp ; 0x8002fdc
        0x0800284a:    b908        ..      CBNZ     r0,0x8002850 ; device_find + 48
        0x0800284c:    4626        &F      MOV      r6,r4
        0x0800284e:    e002        ..      B        0x8002856 ; device_find + 54
        0x08002850:    6aa4        .j      LDR      r4,[r4,#0x28]
        0x08002852:    2c00        .,      CMP      r4,#0
        0x08002854:    d1f5        ..      BNE      0x8002842 ; device_find + 34
        0x08002856:    bf00        ..      NOP      
        0x08002858:    4630        0F      MOV      r0,r6
        0x0800285a:    bd70        p.      POP      {r4-r6,pc}
    $d
        0x0800285c:    696e696d    mini    DCD    1768843629
        0x08002860:    534f5452    RTOS    DCD    1397707858
        0x08002864:    6972445c    \Dri    DCD    1769096284
        0x08002868:    5c726576    ver\    DCD    1551000950
        0x0800286c:    5c637253    Src\    DCD    1550021203
        0x08002870:    69766564    devi    DCD    1769366884
        0x08002874:    632e6563    ce.c    DCD    1663984995
        0x08002878:    00000000    ....    DCD    0
        0x0800287c:    6f727245    Erro    DCD    1869771333
        0x08002880:    73253a72    r:%s    DCD    1931819634
        0x08002884:    0d64252c    ,%d.    DCD    224666924
        0x08002888:    0000000a    ....    DCD    10
        0x0800288c:    20000054    T..     DCD    536870996
    $t
    i.device_init
    device_init
        0x08002890:    b570        p.      PUSH     {r4-r6,lr}
        0x08002892:    4604        .F      MOV      r4,r0
        0x08002894:    2500        .%      MOVS     r5,#0
        0x08002896:    b10c        ..      CBZ      r4,0x800289c ; device_init + 12
        0x08002898:    2001        .       MOVS     r0,#1
        0x0800289a:    e000        ..      B        0x800289e ; device_init + 14
        0x0800289c:    2000        .       MOVS     r0,#0
        0x0800289e:    b920         .      CBNZ     r0,0x80028aa ; device_init + 26
        0x080028a0:    2272        r"      MOVS     r2,#0x72
        0x080028a2:    a108        ..      ADR      r1,{pc}+0x22 ; 0x80028c4
        0x080028a4:    a00f        ..      ADR      r0,{pc}+0x40 ; 0x80028e4
        0x080028a6:    f000faa3    ....    BL       mini_printf ; 0x8002df0
        0x080028aa:    7960        `y      LDRB     r0,[r4,#5]
        0x080028ac:    2801        .(      CMP      r0,#1
        0x080028ae:    d106        ..      BNE      0x80028be ; device_init + 46
        0x080028b0:    68a0        .h      LDR      r0,[r4,#8]
        0x080028b2:    b120         .      CBZ      r0,0x80028be ; device_init + 46
        0x080028b4:    68a0        .h      LDR      r0,[r4,#8]
        0x080028b6:    4780        .G      BLX      r0
        0x080028b8:    2000        .       MOVS     r0,#0
        0x080028ba:    7160        `q      STRB     r0,[r4,#5]
        0x080028bc:    2501        .%      MOVS     r5,#1
        0x080028be:    4628        (F      MOV      r0,r5
        0x080028c0:    bd70        p.      POP      {r4-r6,pc}
    $d
        0x080028c2:    0000        ..      DCW    0
        0x080028c4:    696e696d    mini    DCD    1768843629
        0x080028c8:    534f5452    RTOS    DCD    1397707858
        0x080028cc:    6972445c    \Dri    DCD    1769096284
        0x080028d0:    5c726576    ver\    DCD    1551000950
        0x080028d4:    5c637253    Src\    DCD    1550021203
        0x080028d8:    69766564    devi    DCD    1769366884
        0x080028dc:    632e6563    ce.c    DCD    1663984995
        0x080028e0:    00000000    ....    DCD    0
        0x080028e4:    6f727245    Erro    DCD    1869771333
        0x080028e8:    73253a72    r:%s    DCD    1931819634
        0x080028ec:    0d64252c    ,%d.    DCD    224666924
        0x080028f0:    0000000a    ....    DCD    10
    $t
    i.device_open
    device_open
        0x080028f4:    b570        p.      PUSH     {r4-r6,lr}
        0x080028f6:    4604        .F      MOV      r4,r0
        0x080028f8:    460d        .F      MOV      r5,r1
        0x080028fa:    2600        .&      MOVS     r6,#0
        0x080028fc:    b10c        ..      CBZ      r4,0x8002902 ; device_open + 14
        0x080028fe:    2001        .       MOVS     r0,#1
        0x08002900:    e000        ..      B        0x8002904 ; device_open + 16
        0x08002902:    2000        .       MOVS     r0,#0
        0x08002904:    b920         .      CBNZ     r0,0x8002910 ; device_open + 28
        0x08002906:    2280        ."      MOVS     r2,#0x80
        0x08002908:    a10b        ..      ADR      r1,{pc}+0x30 ; 0x8002938
        0x0800290a:    a013        ..      ADR      r0,{pc}+0x4e ; 0x8002958
        0x0800290c:    f000fa70    ..p.    BL       mini_printf ; 0x8002df0
        0x08002910:    7920         y      LDRB     r0,[r4,#4]
        0x08002912:    2801        .(      CMP      r0,#1
        0x08002914:    d10d        ..      BNE      0x8002932 ; device_open + 62
        0x08002916:    7960        `y      LDRB     r0,[r4,#5]
        0x08002918:    2801        .(      CMP      r0,#1
        0x0800291a:    d102        ..      BNE      0x8002922 ; device_open + 46
        0x0800291c:    4620         F      MOV      r0,r4
        0x0800291e:    f7ffffb7    ....    BL       device_init ; 0x8002890
        0x08002922:    68e0        .h      LDR      r0,[r4,#0xc]
        0x08002924:    b110        ..      CBZ      r0,0x800292c ; device_open + 56
        0x08002926:    4628        (F      MOV      r0,r5
        0x08002928:    68e1        .h      LDR      r1,[r4,#0xc]
        0x0800292a:    4788        .G      BLX      r1
        0x0800292c:    2000        .       MOVS     r0,#0
        0x0800292e:    7120         q      STRB     r0,[r4,#4]
        0x08002930:    2601        .&      MOVS     r6,#1
        0x08002932:    4630        0F      MOV      r0,r6
        0x08002934:    bd70        p.      POP      {r4-r6,pc}
    $d
        0x08002936:    0000        ..      DCW    0
        0x08002938:    696e696d    mini    DCD    1768843629
        0x0800293c:    534f5452    RTOS    DCD    1397707858
        0x08002940:    6972445c    \Dri    DCD    1769096284
        0x08002944:    5c726576    ver\    DCD    1551000950
        0x08002948:    5c637253    Src\    DCD    1550021203
        0x0800294c:    69766564    devi    DCD    1769366884
        0x08002950:    632e6563    ce.c    DCD    1663984995
        0x08002954:    00000000    ....    DCD    0
        0x08002958:    6f727245    Erro    DCD    1869771333
        0x0800295c:    73253a72    r:%s    DCD    1931819634
        0x08002960:    0d64252c    ,%d.    DCD    224666924
        0x08002964:    0000000a    ....    DCD    10
    $t
    i.device_read
    device_read
        0x08002968:    e92d41f0    -..A    PUSH     {r4-r8,lr}
        0x0800296c:    4604        .F      MOV      r4,r0
        0x0800296e:    460e        .F      MOV      r6,r1
        0x08002970:    4615        .F      MOV      r5,r2
        0x08002972:    461f        .F      MOV      r7,r3
        0x08002974:    f04f0800    O...    MOV      r8,#0
        0x08002978:    b114        ..      CBZ      r4,0x8002980 ; device_read + 24
        0x0800297a:    b10d        ..      CBZ      r5,0x8002980 ; device_read + 24
        0x0800297c:    2001        .       MOVS     r0,#1
        0x0800297e:    e000        ..      B        0x8002982 ; device_read + 26
        0x08002980:    2000        .       MOVS     r0,#0
        0x08002982:    b920         .      CBNZ     r0,0x800298e ; device_read + 38
        0x08002984:    22a0        ."      MOVS     r2,#0xa0
        0x08002986:    a108        ..      ADR      r1,{pc}+0x22 ; 0x80029a8
        0x08002988:    a00f        ..      ADR      r0,{pc}+0x40 ; 0x80029c8
        0x0800298a:    f000fa31    ..1.    BL       mini_printf ; 0x8002df0
        0x0800298e:    7920         y      LDRB     r0,[r4,#4]
        0x08002990:    b938        8.      CBNZ     r0,0x80029a2 ; device_read + 58
        0x08002992:    6960        `i      LDR      r0,[r4,#0x14]
        0x08002994:    b128        (.      CBZ      r0,0x80029a2 ; device_read + 58
        0x08002996:    463a        :F      MOV      r2,r7
        0x08002998:    4629        )F      MOV      r1,r5
        0x0800299a:    4630        0F      MOV      r0,r6
        0x0800299c:    6963        ci      LDR      r3,[r4,#0x14]
        0x0800299e:    4798        .G      BLX      r3
        0x080029a0:    4680        .F      MOV      r8,r0
        0x080029a2:    4640        @F      MOV      r0,r8
        0x080029a4:    e8bd81f0    ....    POP      {r4-r8,pc}
    $d
        0x080029a8:    696e696d    mini    DCD    1768843629
        0x080029ac:    534f5452    RTOS    DCD    1397707858
        0x080029b0:    6972445c    \Dri    DCD    1769096284
        0x080029b4:    5c726576    ver\    DCD    1551000950
        0x080029b8:    5c637253    Src\    DCD    1550021203
        0x080029bc:    69766564    devi    DCD    1769366884
        0x080029c0:    632e6563    ce.c    DCD    1663984995
        0x080029c4:    00000000    ....    DCD    0
        0x080029c8:    6f727245    Erro    DCD    1869771333
        0x080029cc:    73253a72    r:%s    DCD    1931819634
        0x080029d0:    0d64252c    ,%d.    DCD    224666924
        0x080029d4:    0000000a    ....    DCD    10
    $t
    i.device_register
    device_register
        0x080029d8:    b570        p.      PUSH     {r4-r6,lr}
        0x080029da:    4604        .F      MOV      r4,r0
        0x080029dc:    2600        .&      MOVS     r6,#0
        0x080029de:    2500        .%      MOVS     r5,#0
        0x080029e0:    b10c        ..      CBZ      r4,0x80029e6 ; device_register + 14
        0x080029e2:    2001        .       MOVS     r0,#1
        0x080029e4:    e000        ..      B        0x80029e8 ; device_register + 16
        0x080029e6:    2000        .       MOVS     r0,#0
        0x080029e8:    b920         .      CBNZ     r0,0x80029f4 ; device_register + 28
        0x080029ea:    2239        9"      MOVS     r2,#0x39
        0x080029ec:    a10f        ..      ADR      r1,{pc}+0x40 ; 0x8002a2c
        0x080029ee:    a017        ..      ADR      r0,{pc}+0x5e ; 0x8002a4c
        0x080029f0:    f000f9fe    ....    BL       mini_printf ; 0x8002df0
        0x080029f4:    6820         h      LDR      r0,[r4,#0]
        0x080029f6:    f7ffff13    ....    BL       device_find ; 0x8002820
        0x080029fa:    b9a0        ..      CBNZ     r0,0x8002a26 ; device_register + 78
        0x080029fc:    4817        .H      LDR      r0,[pc,#92] ; [0x8002a5c] = 0x20000054
        0x080029fe:    6800        .h      LDR      r0,[r0,#0]
        0x08002a00:    b920         .      CBNZ     r0,0x8002a0c ; device_register + 52
        0x08002a02:    4816        .H      LDR      r0,[pc,#88] ; [0x8002a5c] = 0x20000054
        0x08002a04:    6004        .`      STR      r4,[r0,#0]
        0x08002a06:    2000        .       MOVS     r0,#0
        0x08002a08:    62a0        .b      STR      r0,[r4,#0x28]
        0x08002a0a:    e008        ..      B        0x8002a1e ; device_register + 70
        0x08002a0c:    4813        .H      LDR      r0,[pc,#76] ; [0x8002a5c] = 0x20000054
        0x08002a0e:    6805        .h      LDR      r5,[r0,#0]
        0x08002a10:    e000        ..      B        0x8002a14 ; device_register + 60
        0x08002a12:    6aad        .j      LDR      r5,[r5,#0x28]
        0x08002a14:    6aa8        .j      LDR      r0,[r5,#0x28]
        0x08002a16:    2800        .(      CMP      r0,#0
        0x08002a18:    d1fb        ..      BNE      0x8002a12 ; device_register + 58
        0x08002a1a:    62ac        .b      STR      r4,[r5,#0x28]
        0x08002a1c:    62a0        .b      STR      r0,[r4,#0x28]
        0x08002a1e:    2001        .       MOVS     r0,#1
        0x08002a20:    7120         q      STRB     r0,[r4,#4]
        0x08002a22:    7160        `q      STRB     r0,[r4,#5]
        0x08002a24:    2601        .&      MOVS     r6,#1
        0x08002a26:    4630        0F      MOV      r0,r6
        0x08002a28:    bd70        p.      POP      {r4-r6,pc}
    $d
        0x08002a2a:    0000        ..      DCW    0
        0x08002a2c:    696e696d    mini    DCD    1768843629
        0x08002a30:    534f5452    RTOS    DCD    1397707858
        0x08002a34:    6972445c    \Dri    DCD    1769096284
        0x08002a38:    5c726576    ver\    DCD    1551000950
        0x08002a3c:    5c637253    Src\    DCD    1550021203
        0x08002a40:    69766564    devi    DCD    1769366884
        0x08002a44:    632e6563    ce.c    DCD    1663984995
        0x08002a48:    00000000    ....    DCD    0
        0x08002a4c:    6f727245    Erro    DCD    1869771333
        0x08002a50:    73253a72    r:%s    DCD    1931819634
        0x08002a54:    0d64252c    ,%d.    DCD    224666924
        0x08002a58:    0000000a    ....    DCD    10
        0x08002a5c:    20000054    T..     DCD    536870996
    $t
    i.device_write
    device_write
        0x08002a60:    e92d41f0    -..A    PUSH     {r4-r8,lr}
        0x08002a64:    4604        .F      MOV      r4,r0
        0x08002a66:    460e        .F      MOV      r6,r1
        0x08002a68:    4615        .F      MOV      r5,r2
        0x08002a6a:    461f        .F      MOV      r7,r3
        0x08002a6c:    f04f0800    O...    MOV      r8,#0
        0x08002a70:    b114        ..      CBZ      r4,0x8002a78 ; device_write + 24
        0x08002a72:    b10d        ..      CBZ      r5,0x8002a78 ; device_write + 24
        0x08002a74:    2001        .       MOVS     r0,#1
        0x08002a76:    e000        ..      B        0x8002a7a ; device_write + 26
        0x08002a78:    2000        .       MOVS     r0,#0
        0x08002a7a:    b920         .      CBNZ     r0,0x8002a86 ; device_write + 38
        0x08002a7c:    22ac        ."      MOVS     r2,#0xac
        0x08002a7e:    a108        ..      ADR      r1,{pc}+0x22 ; 0x8002aa0
        0x08002a80:    a00f        ..      ADR      r0,{pc}+0x40 ; 0x8002ac0
        0x08002a82:    f000f9b5    ....    BL       mini_printf ; 0x8002df0
        0x08002a86:    7920         y      LDRB     r0,[r4,#4]
        0x08002a88:    b938        8.      CBNZ     r0,0x8002a9a ; device_write + 58
        0x08002a8a:    69a0        .i      LDR      r0,[r4,#0x18]
        0x08002a8c:    b128        (.      CBZ      r0,0x8002a9a ; device_write + 58
        0x08002a8e:    463a        :F      MOV      r2,r7
        0x08002a90:    4629        )F      MOV      r1,r5
        0x08002a92:    4630        0F      MOV      r0,r6
        0x08002a94:    69a3        .i      LDR      r3,[r4,#0x18]
        0x08002a96:    4798        .G      BLX      r3
        0x08002a98:    4680        .F      MOV      r8,r0
        0x08002a9a:    4640        @F      MOV      r0,r8
        0x08002a9c:    e8bd81f0    ....    POP      {r4-r8,pc}
    $d
        0x08002aa0:    696e696d    mini    DCD    1768843629
        0x08002aa4:    534f5452    RTOS    DCD    1397707858
        0x08002aa8:    6972445c    \Dri    DCD    1769096284
        0x08002aac:    5c726576    ver\    DCD    1551000950
        0x08002ab0:    5c637253    Src\    DCD    1550021203
        0x08002ab4:    69766564    devi    DCD    1769366884
        0x08002ab8:    632e6563    ce.c    DCD    1663984995
        0x08002abc:    00000000    ....    DCD    0
        0x08002ac0:    6f727245    Erro    DCD    1869771333
        0x08002ac4:    73253a72    r:%s    DCD    1931819634
        0x08002ac8:    0d64252c    ,%d.    DCD    224666924
        0x08002acc:    0000000a    ....    DCD    10
    $t
    i.fault_test_by_div0
    fault_test_by_div0
        0x08002ad0:    e92d41f0    -..A    PUSH     {r4-r8,lr}
        0x08002ad4:    4c07        .L      LDR      r4,[pc,#28] ; [0x8002af4] = 0xe000ed14
        0x08002ad6:    6820         h      LDR      r0,[r4,#0]
        0x08002ad8:    f0400010    @...    ORR      r0,r0,#0x10
        0x08002adc:    6020         `      STR      r0,[r4,#0]
        0x08002ade:    270a        .'      MOVS     r7,#0xa
        0x08002ae0:    2500        .%      MOVS     r5,#0
        0x08002ae2:    fb97f6f5    ....    SDIV     r6,r7,r5
        0x08002ae6:    4631        1F      MOV      r1,r6
        0x08002ae8:    a003        ..      ADR      r0,{pc}+0x10 ; 0x8002af8
        0x08002aea:    f000f981    ....    BL       mini_printf ; 0x8002df0
        0x08002aee:    e8bd81f0    ....    POP      {r4-r8,pc}
    $d
        0x08002af2:    0000        ..      DCW    0
        0x08002af4:    e000ed14    ....    DCD    3758157076
        0x08002af8:    64253a7a    z:%d    DCD    1680161402
        0x08002afc:    0000000a    ....    DCD    10
    $t
    i.main
    main
        0x08002b00:    b510        ..      PUSH     {r4,lr}
        0x08002b02:    f7fdfd7d    ..}.    BL       BSP_Init ; 0x8000600
        0x08002b06:    f7fefc59    ..Y.    BL       RTOS_Init ; 0x80013bc
        0x08002b0a:    2000        .       MOVS     r0,#0
        0x08002b0c:    bd10        ..      POP      {r4,pc}
        0x08002b0e:    0000        ..      MOVS     r0,r0
    i.miniRTOS_Init
    miniRTOS_Init
        0x08002b10:    b510        ..      PUSH     {r4,lr}
        0x08002b12:    21ff        .!      MOVS     r1,#0xff
        0x08002b14:    f06f0001    o...    MVN      r0,#1
        0x08002b18:    f7fefa0c    ....    BL       NVIC_SetPriority ; 0x8000f34
        0x08002b1c:    2100        .!      MOVS     r1,#0
        0x08002b1e:    1f48        H.      SUBS     r0,r1,#5
        0x08002b20:    f7fefa08    ....    BL       NVIC_SetPriority ; 0x8000f34
        0x08002b24:    4c0e        .L      LDR      r4,[pc,#56] ; [0x8002b60] = 0x11940
        0x08002b26:    f1b47f80    ....    CMP      r4,#0x1000000
        0x08002b2a:    d300        ..      BCC      0x8002b2e ; miniRTOS_Init + 30
        0x08002b2c:    e011        ..      B        0x8002b52 ; miniRTOS_Init + 66
        0x08002b2e:    f024407f    $..@    BIC      r0,r4,#0xff000000
        0x08002b32:    1e40        @.      SUBS     r0,r0,#1
        0x08002b34:    f04f21e0    O..!    MOV      r1,#0xe000e000
        0x08002b38:    6148        Ha      STR      r0,[r1,#0x14]
        0x08002b3a:    210f        .!      MOVS     r1,#0xf
        0x08002b3c:    f04f30ff    O..0    MOV      r0,#0xffffffff
        0x08002b40:    f7fef9f8    ....    BL       NVIC_SetPriority ; 0x8000f34
        0x08002b44:    2000        .       MOVS     r0,#0
        0x08002b46:    f04f21e0    O..!    MOV      r1,#0xe000e000
        0x08002b4a:    6188        .a      STR      r0,[r1,#0x18]
        0x08002b4c:    2007        .       MOVS     r0,#7
        0x08002b4e:    6108        .a      STR      r0,[r1,#0x10]
        0x08002b50:    bf00        ..      NOP      
        0x08002b52:    2002        .       MOVS     r0,#2
        0x08002b54:    f3808814    ....    MSR      CONTROL,r0
        0x08002b58:    bf00        ..      NOP      
        0x08002b5a:    f7fffa21    ..!.    BL       Start_task ; 0x8001fa0
        0x08002b5e:    bd10        ..      POP      {r4,pc}
    $d
        0x08002b60:    00011940    @...    DCD    72000
    $t
    i.miniRTOS_Show_Vision
    miniRTOS_Show_Vision
        0x08002b64:    b508        ..      PUSH     {r3,lr}
        0x08002b66:    a00f        ..      ADR      r0,{pc}+0x3e ; 0x8002ba4
        0x08002b68:    f000f942    ..B.    BL       mini_printf ; 0x8002df0
        0x08002b6c:    a011        ..      ADR      r0,{pc}+0x48 ; 0x8002bb4
        0x08002b6e:    f000f93f    ..?.    BL       mini_printf ; 0x8002df0
        0x08002b72:    a017        ..      ADR      r0,{pc}+0x5e ; 0x8002bd0
        0x08002b74:    f000f93c    ..<.    BL       mini_printf ; 0x8002df0
        0x08002b78:    a01b        ..      ADR      r0,{pc}+0x70 ; 0x8002be8
        0x08002b7a:    f000f939    ..9.    BL       mini_printf ; 0x8002df0
        0x08002b7e:    a01f        ..      ADR      r0,{pc}+0x7e ; 0x8002bfc
        0x08002b80:    f000f936    ..6.    BL       mini_printf ; 0x8002df0
        0x08002b84:    a022        ".      ADR      r0,{pc}+0x8c ; 0x8002c10
        0x08002b86:    2300        .#      MOVS     r3,#0
        0x08002b88:    461a        .F      MOV      r2,r3
        0x08002b8a:    2101        .!      MOVS     r1,#1
        0x08002b8c:    9000        ..      STR      r0,[sp,#0]
        0x08002b8e:    a023        #.      ADR      r0,{pc}+0x8e ; 0x8002c1c
        0x08002b90:    f000f92e    ....    BL       mini_printf ; 0x8002df0
        0x08002b94:    a027        '.      ADR      r0,{pc}+0xa0 ; 0x8002c34
        0x08002b96:    f000f92b    ..+.    BL       mini_printf ; 0x8002df0
        0x08002b9a:    a02e        ..      ADR      r0,{pc}+0xba ; 0x8002c54
        0x08002b9c:    f000f928    ..(.    BL       mini_printf ; 0x8002df0
        0x08002ba0:    bd08        ..      POP      {r3,pc}
    $d
        0x08002ba2:    0000        ..      DCW    0
        0x08002ba4:    20202020            DCD    538976288
        0x08002ba8:    20202020            DCD    538976288
        0x08002bac:    2f202020       /    DCD    790634528
        0x08002bb0:    000a0d5c    \...    DCD    658780
        0x08002bb4:    5f5f5f5f    ____    DCD    1600085855
        0x08002bb8:    5f5f5f5f    ____    DCD    1600085855
        0x08002bbc:    202f5f5f    __/     DCD    539975519
        0x08002bc0:    5f5f5c20     \__    DCD    1600085024
        0x08002bc4:    5f5f5f5f    ____    DCD    1600085855
        0x08002bc8:    5f5f5f5f    ____    DCD    1600085855
        0x08002bcc:    00000a0d    ....    DCD    2573
        0x08002bd0:    5f202020       _    DCD    1595940896
        0x08002bd4:    5f5f5f5f    ____    DCD    1600085855
        0x08002bd8:    2f202f5f    _/ /    DCD    790638431
        0x08002bdc:    5f5c205c    \ \_    DCD    1599873116
        0x08002be0:    5f5f5f5f    ____    DCD    1600085855
        0x08002be4:    000a0d5f    _...    DCD    658783
        0x08002be8:    20202020            DCD    538976288
        0x08002bec:    20202020            DCD    538976288
        0x08002bf0:    202f202f    / /     DCD    539959343
        0x08002bf4:    5c205c20     \ \    DCD    1545624608
        0x08002bf8:    00000a0d    ....    DCD    2573
        0x08002bfc:    20202020            DCD    538976288
        0x08002c00:    2f202020       /    DCD    790634528
        0x08002c04:    20202f20     /      DCD    538980128
        0x08002c08:    205c2020      \     DCD    542908448
        0x08002c0c:    000a0d5c    \...    DCD    658780
        0x08002c10:    20626546    Feb     DCD    543319366
        0x08002c14:    32203032    20 2    DCD    840970290
        0x08002c18:    00323230    022.    DCD    3289648
        0x08002c1c:    64252020      %d    DCD    1680154656
        0x08002c20:    2e64252e    .%d.    DCD    778315054
        0x08002c24:    62206425    %d b    DCD    1646289957
        0x08002c28:    646c6975    uild    DCD    1684826485
        0x08002c2c:    0d732520     %s.    DCD    225649952
        0x08002c30:    0000000a    ....    DCD    10
        0x08002c34:    30323032    2020    DCD    808595506
        0x08002c38:    32202d20     - 2    DCD    840969504
        0x08002c3c:    20333230    023     DCD    540226096
        0x08002c40:    79706f43    Copy    DCD    2037411651
        0x08002c44:    68676972    righ    DCD    1751607666
        0x08002c48:    79622074    t by    DCD    2036473972
        0x08002c4c:    79646420     ddy    DCD    2036622368
        0x08002c50:    00000a0d    ....    DCD    2573
        0x08002c54:    696e696d    mini    DCD    1768843629
        0x08002c58:    534f5452    RTOS    DCD    1397707858
        0x08002c5c:    6d202d20     - m    DCD    1830825248
        0x08002c60:    20696e69    ini     DCD    543780457
        0x08002c64:    6c616552    Real    DCD    1818322258
        0x08002c68:    6d695420     Tim    DCD    1835619360
        0x08002c6c:    4f207265    er O    DCD    1327526501
        0x08002c70:    61726570    pera    DCD    1634887024
        0x08002c74:    676e6974    ting    DCD    1735289204
        0x08002c78:    73795320     Sys    DCD    1937330976
        0x08002c7c:    0d6d6574    tem.    DCD    225273204
        0x08002c80:    0000000a    ....    DCD    10
    $t
    i.mini_free
    mini_free
        0x08002c84:    e92d47f0    -..G    PUSH     {r4-r10,lr}
        0x08002c88:    4681        .F      MOV      r9,r0
        0x08002c8a:    f7fef967    ..g.    BL       Pend_Schedule ; 0x8000f5c
        0x08002c8e:    f1a90418    ....    SUB      r4,r9,#0x18
        0x08002c92:    4928        (I      LDR      r1,[pc,#160] ; [0x8002d34] = 0xabcdef5a
        0x08002c94:    6820         h      LDR      r0,[r4,#0]
        0x08002c96:    4288        .B      CMP      r0,r1
        0x08002c98:    d002        ..      BEQ      0x8002ca0 ; mini_free + 28
        0x08002c9a:    f04f38ff    O..8    MOV      r8,#0xffffffff
        0x08002c9e:    e043        C.      B        0x8002d28 ; mini_free + 164
        0x08002ca0:    6860        `h      LDR      r0,[r4,#4]
        0x08002ca2:    f0204100     ..A    BIC      r1,r0,#0x80000000
        0x08002ca6:    f06f4000    o..@    MVN      r0,#0x80000000
        0x08002caa:    43a0        .C      BICS     r0,r0,r4
        0x08002cac:    4281        .B      CMP      r1,r0
        0x08002cae:    d104        ..      BNE      0x8002cba ; mini_free + 54
        0x08002cb0:    2101        .!      MOVS     r1,#1
        0x08002cb2:    6860        `h      LDR      r0,[r4,#4]
        0x08002cb4:    ebb17fd0    ....    CMP      r1,r0,LSR #31
        0x08002cb8:    d002        ..      BEQ      0x8002cc0 ; mini_free + 60
        0x08002cba:    f04f0801    O...    MOV      r8,#1
        0x08002cbe:    e033        3.      B        0x8002d28 ; mini_free + 164
        0x08002cc0:    6860        `h      LDR      r0,[r4,#4]
        0x08002cc2:    f0204000     ..@    BIC      r0,r0,#0x80000000
        0x08002cc6:    6060        ``      STR      r0,[r4,#4]
        0x08002cc8:    4627        'F      MOV      r7,r4
        0x08002cca:    68e0        .h      LDR      r0,[r4,#0xc]
        0x08002ccc:    6840        @h      LDR      r0,[r0,#4]
        0x08002cce:    0fc0        ..      LSRS     r0,r0,#31
        0x08002cd0:    b978        x.      CBNZ     r0,0x8002cf2 ; mini_free + 110
        0x08002cd2:    68e6        .h      LDR      r6,[r4,#0xc]
        0x08002cd4:    4630        0F      MOV      r0,r6
        0x08002cd6:    f000fa59    ..Y.    BL       sole_list_remove ; 0x800318c
        0x08002cda:    68a1        .h      LDR      r1,[r4,#8]
        0x08002cdc:    68b0        .h      LDR      r0,[r6,#8]
        0x08002cde:    3018        .0      ADDS     r0,r0,#0x18
        0x08002ce0:    4408        .D      ADD      r0,r0,r1
        0x08002ce2:    60a0        .`      STR      r0,[r4,#8]
        0x08002ce4:    68f0        .h      LDR      r0,[r6,#0xc]
        0x08002ce6:    60e0        .`      STR      r0,[r4,#0xc]
        0x08002ce8:    68f0        .h      LDR      r0,[r6,#0xc]
        0x08002cea:    b108        ..      CBZ      r0,0x8002cf0 ; mini_free + 108
        0x08002cec:    68f0        .h      LDR      r0,[r6,#0xc]
        0x08002cee:    6104        .a      STR      r4,[r0,#0x10]
        0x08002cf0:    4627        'F      MOV      r7,r4
        0x08002cf2:    6920         i      LDR      r0,[r4,#0x10]
        0x08002cf4:    b198        ..      CBZ      r0,0x8002d1e ; mini_free + 154
        0x08002cf6:    6920         i      LDR      r0,[r4,#0x10]
        0x08002cf8:    6840        @h      LDR      r0,[r0,#4]
        0x08002cfa:    0fc0        ..      LSRS     r0,r0,#31
        0x08002cfc:    b978        x.      CBNZ     r0,0x8002d1e ; mini_free + 154
        0x08002cfe:    6925        %i      LDR      r5,[r4,#0x10]
        0x08002d00:    4628        (F      MOV      r0,r5
        0x08002d02:    f000fa43    ..C.    BL       sole_list_remove ; 0x800318c
        0x08002d06:    68a9        .h      LDR      r1,[r5,#8]
        0x08002d08:    68a0        .h      LDR      r0,[r4,#8]
        0x08002d0a:    3018        .0      ADDS     r0,r0,#0x18
        0x08002d0c:    4408        .D      ADD      r0,r0,r1
        0x08002d0e:    60a8        .`      STR      r0,[r5,#8]
        0x08002d10:    68e0        .h      LDR      r0,[r4,#0xc]
        0x08002d12:    b108        ..      CBZ      r0,0x8002d18 ; mini_free + 148
        0x08002d14:    68e0        .h      LDR      r0,[r4,#0xc]
        0x08002d16:    6105        .a      STR      r5,[r0,#0x10]
        0x08002d18:    68e0        .h      LDR      r0,[r4,#0xc]
        0x08002d1a:    60e8        .`      STR      r0,[r5,#0xc]
        0x08002d1c:    462f        /F      MOV      r7,r5
        0x08002d1e:    4638        8F      MOV      r0,r7
        0x08002d20:    f000fa04    ....    BL       sole_list_insert ; 0x800312c
        0x08002d24:    f04f0800    O...    MOV      r8,#0
        0x08002d28:    f7fefcaa    ....    BL       Release_Schedule ; 0x8001680
        0x08002d2c:    4640        @F      MOV      r0,r8
        0x08002d2e:    e8bd87f0    ....    POP      {r4-r10,pc}
    $d
        0x08002d32:    0000        ..      DCW    0
        0x08002d34:    abcdef5a    Z...    DCD    2882400090
    $t
    i.mini_malloc
    mini_malloc
        0x08002d38:    e92d41f0    -..A    PUSH     {r4-r8,lr}
        0x08002d3c:    4607        .F      MOV      r7,r0
        0x08002d3e:    f04f0800    O...    MOV      r8,#0
        0x08002d42:    f7fef90b    ....    BL       Pend_Schedule ; 0x8000f5c
        0x08002d46:    f0070007    ....    AND      r0,r7,#7
        0x08002d4a:    b108        ..      CBZ      r0,0x8002d50 ; mini_malloc + 24
        0x08002d4c:    2001        .       MOVS     r0,#1
        0x08002d4e:    e000        ..      B        0x8002d52 ; mini_malloc + 26
        0x08002d50:    2000        .       MOVS     r0,#0
        0x08002d52:    eb0000d7    ....    ADD      r0,r0,r7,LSR #3
        0x08002d56:    00c6        ..      LSLS     r6,r0,#3
        0x08002d58:    4630        0F      MOV      r0,r6
        0x08002d5a:    f000f959    ..Y.    BL       search_best_freeblock ; 0x8003010
        0x08002d5e:    4604        .F      MOV      r4,r0
        0x08002d60:    b914        ..      CBNZ     r4,0x8002d68 ; mini_malloc + 48
        0x08002d62:    f04f0800    O...    MOV      r8,#0
        0x08002d66:    e02a        *.      B        0x8002dbe ; mini_malloc + 134
        0x08002d68:    4620         F      MOV      r0,r4
        0x08002d6a:    f000fa0f    ....    BL       sole_list_remove ; 0x800318c
        0x08002d6e:    f1040818    ....    ADD      r8,r4,#0x18
        0x08002d72:    19a0        ..      ADDS     r0,r4,r6
        0x08002d74:    f1000518    ....    ADD      r5,r0,#0x18
        0x08002d78:    68a0        .h      LDR      r0,[r4,#8]
        0x08002d7a:    1b80        ..      SUBS     r0,r0,r6
        0x08002d7c:    3818        .8      SUBS     r0,r0,#0x18
        0x08002d7e:    60a8        .`      STR      r0,[r5,#8]
        0x08002d80:    60a6        .`      STR      r6,[r4,#8]
        0x08002d82:    6860        `h      LDR      r0,[r4,#4]
        0x08002d84:    f0204000     ..@    BIC      r0,r0,#0x80000000
        0x08002d88:    f1004000    ...@    ADD      r0,r0,#0x80000000
        0x08002d8c:    6060        ``      STR      r0,[r4,#4]
        0x08002d8e:    f06f4000    o..@    MVN      r0,#0x80000000
        0x08002d92:    43a8        .C      BICS     r0,r0,r5
        0x08002d94:    6869        ih      LDR      r1,[r5,#4]
        0x08002d96:    f360011e    `...    BFI      r1,r0,#0,#31
        0x08002d9a:    6069        i`      STR      r1,[r5,#4]
        0x08002d9c:    6868        hh      LDR      r0,[r5,#4]
        0x08002d9e:    f0204000     ..@    BIC      r0,r0,#0x80000000
        0x08002da2:    6068        h`      STR      r0,[r5,#4]
        0x08002da4:    4808        .H      LDR      r0,[pc,#32] ; [0x8002dc8] = 0xabcdef5a
        0x08002da6:    6028        (`      STR      r0,[r5,#0]
        0x08002da8:    612c        ,a      STR      r4,[r5,#0x10]
        0x08002daa:    68e0        .h      LDR      r0,[r4,#0xc]
        0x08002dac:    60e8        .`      STR      r0,[r5,#0xc]
        0x08002dae:    68e0        .h      LDR      r0,[r4,#0xc]
        0x08002db0:    b108        ..      CBZ      r0,0x8002db6 ; mini_malloc + 126
        0x08002db2:    68e0        .h      LDR      r0,[r4,#0xc]
        0x08002db4:    6105        .a      STR      r5,[r0,#0x10]
        0x08002db6:    60e5        .`      STR      r5,[r4,#0xc]
        0x08002db8:    4628        (F      MOV      r0,r5
        0x08002dba:    f000f9b7    ....    BL       sole_list_insert ; 0x800312c
        0x08002dbe:    f7fefc5f    .._.    BL       Release_Schedule ; 0x8001680
        0x08002dc2:    4640        @F      MOV      r0,r8
        0x08002dc4:    e8bd81f0    ....    POP      {r4-r8,pc}
    $d
        0x08002dc8:    abcdef5a    Z...    DCD    2882400090
    $t
    i.mini_memset
    mini_memset
        0x08002dcc:    b530        0.      PUSH     {r4,r5,lr}
        0x08002dce:    4603        .F      MOV      r3,r0
        0x08002dd0:    460c        .F      MOV      r4,r1
        0x08002dd2:    4619        .F      MOV      r1,r3
        0x08002dd4:    b103        ..      CBZ      r3,0x8002dd8 ; mini_memset + 12
        0x08002dd6:    b90a        ..      CBNZ     r2,0x8002ddc ; mini_memset + 16
        0x08002dd8:    2000        .       MOVS     r0,#0
        0x08002dda:    bd30        0.      POP      {r4,r5,pc}
        0x08002ddc:    e001        ..      B        0x8002de2 ; mini_memset + 22
        0x08002dde:    f8014b01    ...K    STRB     r4,[r1],#1
        0x08002de2:    1e10        ..      SUBS     r0,r2,#0
        0x08002de4:    f1a20201    ....    SUB      r2,r2,#1
        0x08002de8:    d1f9        ..      BNE      0x8002dde ; mini_memset + 18
        0x08002dea:    4618        .F      MOV      r0,r3
        0x08002dec:    e7f5        ..      B        0x8002dda ; mini_memset + 14
        0x08002dee:    0000        ..      MOVS     r0,r0
    i.mini_printf
    mini_printf
        0x08002df0:    b40f        ..      PUSH     {r0-r3}
        0x08002df2:    e92d4ff0    -..O    PUSH     {r4-r11,lr}
        0x08002df6:    b08d        ..      SUB      sp,sp,#0x34
        0x08002df8:    2124        $!      MOVS     r1,#0x24
        0x08002dfa:    a803        ..      ADD      r0,sp,#0xc
        0x08002dfc:    f7fdf9c7    ....    BL       __aeabi_memclr ; 0x800018e
        0x08002e00:    a817        ..      ADD      r0,sp,#0x5c
        0x08002e02:    9002        ..      STR      r0,[sp,#8]
        0x08002e04:    e0c8        ..      B        0x8002f98 ; mini_printf + 424
        0x08002e06:    9816        ..      LDR      r0,[sp,#0x58]
        0x08002e08:    7800        .x      LDRB     r0,[r0,#0]
        0x08002e0a:    2825        %(      CMP      r0,#0x25
        0x08002e0c:    d004        ..      BEQ      0x8002e18 ; mini_printf + 40
        0x08002e0e:    9916        ..      LDR      r1,[sp,#0x58]
        0x08002e10:    7808        .x      LDRB     r0,[r1,#0]
        0x08002e12:    f000f8cf    ....    BL       mini_sendchr ; 0x8002fb4
        0x08002e16:    e0bc        ..      B        0x8002f92 ; mini_printf + 418
        0x08002e18:    9816        ..      LDR      r0,[sp,#0x58]
        0x08002e1a:    1c40        @.      ADDS     r0,r0,#1
        0x08002e1c:    9016        ..      STR      r0,[sp,#0x58]
        0x08002e1e:    7800        .x      LDRB     r0,[r0,#0]
        0x08002e20:    2866        f(      CMP      r0,#0x66
        0x08002e22:    d054        T.      BEQ      0x8002ece ; mini_printf + 222
        0x08002e24:    dc08        ..      BGT      0x8002e38 ; mini_printf + 72
        0x08002e26:    2858        X(      CMP      r0,#0x58
        0x08002e28:    d015        ..      BEQ      0x8002e56 ; mini_printf + 102
        0x08002e2a:    2862        b(      CMP      r0,#0x62
        0x08002e2c:    d040        @.      BEQ      0x8002eb0 ; mini_printf + 192
        0x08002e2e:    2863        c(      CMP      r0,#0x63
        0x08002e30:    d07d        }.      BEQ      0x8002f2e ; mini_printf + 318
        0x08002e32:    2864        d(      CMP      r0,#0x64
        0x08002e34:    d17c        |.      BNE      0x8002f30 ; mini_printf + 320
        0x08002e36:    e01d        ..      B        0x8002e74 ; mini_printf + 132
        0x08002e38:    286f        o(      CMP      r0,#0x6f
        0x08002e3a:    d02a        *.      BEQ      0x8002e92 ; mini_printf + 162
        0x08002e3c:    2873        s(      CMP      r0,#0x73
        0x08002e3e:    d002        ..      BEQ      0x8002e46 ; mini_printf + 86
        0x08002e40:    2878        x(      CMP      r0,#0x78
        0x08002e42:    d1f7        ..      BNE      0x8002e34 ; mini_printf + 68
        0x08002e44:    e006        ..      B        0x8002e54 ; mini_printf + 100
        0x08002e46:    9802        ..      LDR      r0,[sp,#8]
        0x08002e48:    c840        @.      LDM      r0!,{r6}
        0x08002e4a:    9002        ..      STR      r0,[sp,#8]
        0x08002e4c:    4630        0F      MOV      r0,r6
        0x08002e4e:    f000f8b7    ....    BL       mini_sendstr ; 0x8002fc0
        0x08002e52:    e09c        ..      B        0x8002f8e ; mini_printf + 414
        0x08002e54:    bf00        ..      NOP      
        0x08002e56:    9802        ..      LDR      r0,[sp,#8]
        0x08002e58:    6800        .h      LDR      r0,[r0,#0]
        0x08002e5a:    900c        ..      STR      r0,[sp,#0x30]
        0x08002e5c:    9802        ..      LDR      r0,[sp,#8]
        0x08002e5e:    1d00        ..      ADDS     r0,r0,#4
        0x08002e60:    9002        ..      STR      r0,[sp,#8]
        0x08002e62:    2210        ."      MOVS     r2,#0x10
        0x08002e64:    a903        ..      ADD      r1,sp,#0xc
        0x08002e66:    980c        ..      LDR      r0,[sp,#0x30]
        0x08002e68:    f7fffc40    ..@.    BL       data_format_switch ; 0x80026ec
        0x08002e6c:    a803        ..      ADD      r0,sp,#0xc
        0x08002e6e:    f000f8a7    ....    BL       mini_sendstr ; 0x8002fc0
        0x08002e72:    e08c        ..      B        0x8002f8e ; mini_printf + 414
        0x08002e74:    9802        ..      LDR      r0,[sp,#8]
        0x08002e76:    6800        .h      LDR      r0,[r0,#0]
        0x08002e78:    900c        ..      STR      r0,[sp,#0x30]
        0x08002e7a:    9802        ..      LDR      r0,[sp,#8]
        0x08002e7c:    1d00        ..      ADDS     r0,r0,#4
        0x08002e7e:    9002        ..      STR      r0,[sp,#8]
        0x08002e80:    220a        ."      MOVS     r2,#0xa
        0x08002e82:    a903        ..      ADD      r1,sp,#0xc
        0x08002e84:    980c        ..      LDR      r0,[sp,#0x30]
        0x08002e86:    f7fffc31    ..1.    BL       data_format_switch ; 0x80026ec
        0x08002e8a:    a803        ..      ADD      r0,sp,#0xc
        0x08002e8c:    f000f898    ....    BL       mini_sendstr ; 0x8002fc0
        0x08002e90:    e07d        }.      B        0x8002f8e ; mini_printf + 414
        0x08002e92:    9802        ..      LDR      r0,[sp,#8]
        0x08002e94:    6800        .h      LDR      r0,[r0,#0]
        0x08002e96:    900c        ..      STR      r0,[sp,#0x30]
        0x08002e98:    9802        ..      LDR      r0,[sp,#8]
        0x08002e9a:    1d00        ..      ADDS     r0,r0,#4
        0x08002e9c:    9002        ..      STR      r0,[sp,#8]
        0x08002e9e:    2208        ."      MOVS     r2,#8
        0x08002ea0:    a903        ..      ADD      r1,sp,#0xc
        0x08002ea2:    980c        ..      LDR      r0,[sp,#0x30]
        0x08002ea4:    f7fffc22    ..".    BL       data_format_switch ; 0x80026ec
        0x08002ea8:    a803        ..      ADD      r0,sp,#0xc
        0x08002eaa:    f000f889    ....    BL       mini_sendstr ; 0x8002fc0
        0x08002eae:    e06e        n.      B        0x8002f8e ; mini_printf + 414
        0x08002eb0:    9802        ..      LDR      r0,[sp,#8]
        0x08002eb2:    6800        .h      LDR      r0,[r0,#0]
        0x08002eb4:    900c        ..      STR      r0,[sp,#0x30]
        0x08002eb6:    9802        ..      LDR      r0,[sp,#8]
        0x08002eb8:    1d00        ..      ADDS     r0,r0,#4
        0x08002eba:    9002        ..      STR      r0,[sp,#8]
        0x08002ebc:    2202        ."      MOVS     r2,#2
        0x08002ebe:    a903        ..      ADD      r1,sp,#0xc
        0x08002ec0:    980c        ..      LDR      r0,[sp,#0x30]
        0x08002ec2:    f7fffc13    ....    BL       data_format_switch ; 0x80026ec
        0x08002ec6:    a803        ..      ADD      r0,sp,#0xc
        0x08002ec8:    f000f87a    ..z.    BL       mini_sendstr ; 0x8002fc0
        0x08002ecc:    e05f        _.      B        0x8002f8e ; mini_printf + 414
        0x08002ece:    9802        ..      LDR      r0,[sp,#8]
        0x08002ed0:    1dc0        ..      ADDS     r0,r0,#7
        0x08002ed2:    f0200007     ...    BIC      r0,r0,#7
        0x08002ed6:    9002        ..      STR      r0,[sp,#8]
        0x08002ed8:    c830        0.      LDM      r0!,{r4,r5}
        0x08002eda:    9a02        ..      LDR      r2,[sp,#8]
        0x08002edc:    3208        .2      ADDS     r2,r2,#8
        0x08002ede:    9202        ..      STR      r2,[sp,#8]
        0x08002ee0:    4620         F      MOV      r0,r4
        0x08002ee2:    4629        )F      MOV      r1,r5
        0x08002ee4:    f7fdfa88    ....    BL       __aeabi_d2iz ; 0x80003f8
        0x08002ee8:    900c        ..      STR      r0,[sp,#0x30]
        0x08002eea:    220a        ."      MOVS     r2,#0xa
        0x08002eec:    a903        ..      ADD      r1,sp,#0xc
        0x08002eee:    980c        ..      LDR      r0,[sp,#0x30]
        0x08002ef0:    f7fffbfc    ....    BL       data_format_switch ; 0x80026ec
        0x08002ef4:    a803        ..      ADD      r0,sp,#0xc
        0x08002ef6:    f000f863    ..c.    BL       mini_sendstr ; 0x8002fc0
        0x08002efa:    202e        .       MOVS     r0,#0x2e
        0x08002efc:    f000f85a    ..Z.    BL       mini_sendchr ; 0x8002fb4
        0x08002f00:    2200        ."      MOVS     r2,#0
        0x08002f02:    4613        .F      MOV      r3,r2
        0x08002f04:    4620         F      MOV      r0,r4
        0x08002f06:    4629        )F      MOV      r1,r5
        0x08002f08:    f7fdfac2    ....    BL       __aeabi_cdrcmple ; 0x8000490
        0x08002f0c:    d215        ..      BCS      0x8002f3a ; mini_printf + 330
        0x08002f0e:    980c        ..      LDR      r0,[sp,#0x30]
        0x08002f10:    f7fdfa61    ..a.    BL       __aeabi_i2d ; 0x80003d6
        0x08002f14:    4607        .F      MOV      r7,r0
        0x08002f16:    4622        "F      MOV      r2,r4
        0x08002f18:    462b        +F      MOV      r3,r5
        0x08002f1a:    f7fdf9e7    ....    BL       __aeabi_drsub ; 0x80002ec
        0x08002f1e:    2200        ."      MOVS     r2,#0
        0x08002f20:    4b23        #K      LDR      r3,[pc,#140] ; [0x8002fb0] = 0x416312d0
        0x08002f22:    e9cd0100    ....    STRD     r0,r1,[sp,#0]
        0x08002f26:    f7fdf9e4    ....    BL       __aeabi_dmul ; 0x80002f2
        0x08002f2a:    4682        .F      MOV      r10,r0
        0x08002f2c:    e001        ..      B        0x8002f32 ; mini_printf + 322
        0x08002f2e:    e01f        ..      B        0x8002f70 ; mini_printf + 384
        0x08002f30:    e028        (.      B        0x8002f84 ; mini_printf + 404
        0x08002f32:    f7fdfa80    ....    BL       __aeabi_d2uiz ; 0x8000436
        0x08002f36:    900c        ..      STR      r0,[sp,#0x30]
        0x08002f38:    e011        ..      B        0x8002f5e ; mini_printf + 366
        0x08002f3a:    980c        ..      LDR      r0,[sp,#0x30]
        0x08002f3c:    f7fdfa4b    ..K.    BL       __aeabi_i2d ; 0x80003d6
        0x08002f40:    4607        .F      MOV      r7,r0
        0x08002f42:    4622        "F      MOV      r2,r4
        0x08002f44:    462b        +F      MOV      r3,r5
        0x08002f46:    f7fdf9ce    ....    BL       __aeabi_dsub ; 0x80002e6
        0x08002f4a:    4682        .F      MOV      r10,r0
        0x08002f4c:    2200        ."      MOVS     r2,#0
        0x08002f4e:    4b18        .K      LDR      r3,[pc,#96] ; [0x8002fb0] = 0x416312d0
        0x08002f50:    f7fdf9cf    ....    BL       __aeabi_dmul ; 0x80002f2
        0x08002f54:    e9cd0100    ....    STRD     r0,r1,[sp,#0]
        0x08002f58:    f7fdfa6d    ..m.    BL       __aeabi_d2uiz ; 0x8000436
        0x08002f5c:    900c        ..      STR      r0,[sp,#0x30]
        0x08002f5e:    220a        ."      MOVS     r2,#0xa
        0x08002f60:    a903        ..      ADD      r1,sp,#0xc
        0x08002f62:    980c        ..      LDR      r0,[sp,#0x30]
        0x08002f64:    f7fffbc2    ....    BL       data_format_switch ; 0x80026ec
        0x08002f68:    a803        ..      ADD      r0,sp,#0xc
        0x08002f6a:    f000f829    ..).    BL       mini_sendstr ; 0x8002fc0
        0x08002f6e:    e00e        ..      B        0x8002f8e ; mini_printf + 414
        0x08002f70:    9802        ..      LDR      r0,[sp,#8]
        0x08002f72:    f8101b04    ....    LDRB     r1,[r0],#4
        0x08002f76:    f00109ff    ....    AND      r9,r1,#0xff
        0x08002f7a:    9002        ..      STR      r0,[sp,#8]
        0x08002f7c:    4648        HF      MOV      r0,r9
        0x08002f7e:    f000f819    ....    BL       mini_sendchr ; 0x8002fb4
        0x08002f82:    e004        ..      B        0x8002f8e ; mini_printf + 414
        0x08002f84:    9916        ..      LDR      r1,[sp,#0x58]
        0x08002f86:    7808        .x      LDRB     r0,[r1,#0]
        0x08002f88:    f000f814    ....    BL       mini_sendchr ; 0x8002fb4
        0x08002f8c:    bf00        ..      NOP      
        0x08002f8e:    bf00        ..      NOP      
        0x08002f90:    bf00        ..      NOP      
        0x08002f92:    9816        ..      LDR      r0,[sp,#0x58]
        0x08002f94:    1c40        @.      ADDS     r0,r0,#1
        0x08002f96:    9016        ..      STR      r0,[sp,#0x58]
        0x08002f98:    9816        ..      LDR      r0,[sp,#0x58]
        0x08002f9a:    7800        .x      LDRB     r0,[r0,#0]
        0x08002f9c:    2800        .(      CMP      r0,#0
        0x08002f9e:    f47faf32    ..2.    BNE      0x8002e06 ; mini_printf + 22
        0x08002fa2:    9002        ..      STR      r0,[sp,#8]
        0x08002fa4:    b00d        ..      ADD      sp,sp,#0x34
        0x08002fa6:    e8bd0ff0    ....    POP      {r4-r11}
        0x08002faa:    f85dfb14    ]...    LDR      pc,[sp],#0x14
    $d
        0x08002fae:    0000        ..      DCW    0
        0x08002fb0:    416312d0    ..cA    DCD    1097011920
    $t
    i.mini_sendchr
    mini_sendchr
        0x08002fb4:    b510        ..      PUSH     {r4,lr}
        0x08002fb6:    4604        .F      MOV      r4,r0
        0x08002fb8:    4620         F      MOV      r0,r4
        0x08002fba:    f7fffa37    ..7.    BL       UART_putch ; 0x800242c
        0x08002fbe:    bd10        ..      POP      {r4,pc}
    i.mini_sendstr
    mini_sendstr
        0x08002fc0:    b510        ..      PUSH     {r4,lr}
        0x08002fc2:    4604        .F      MOV      r4,r0
        0x08002fc4:    b904        ..      CBNZ     r4,0x8002fc8 ; mini_sendstr + 8
        0x08002fc6:    bd10        ..      POP      {r4,pc}
        0x08002fc8:    e003        ..      B        0x8002fd2 ; mini_sendstr + 18
        0x08002fca:    f8140b01    ....    LDRB     r0,[r4],#1
        0x08002fce:    f7fffff1    ....    BL       mini_sendchr ; 0x8002fb4
        0x08002fd2:    7820         x      LDRB     r0,[r4,#0]
        0x08002fd4:    2800        .(      CMP      r0,#0
        0x08002fd6:    d1f8        ..      BNE      0x8002fca ; mini_sendstr + 10
        0x08002fd8:    bf00        ..      NOP      
        0x08002fda:    e7f4        ..      B        0x8002fc6 ; mini_sendstr + 6
    i.mini_strcmp
    mini_strcmp
        0x08002fdc:    4602        .F      MOV      r2,r0
        0x08002fde:    e001        ..      B        0x8002fe4 ; mini_strcmp + 8
        0x08002fe0:    1c52        R.      ADDS     r2,r2,#1
        0x08002fe2:    1c49        I.      ADDS     r1,r1,#1
        0x08002fe4:    7810        .x      LDRB     r0,[r2,#0]
        0x08002fe6:    780b        .x      LDRB     r3,[r1,#0]
        0x08002fe8:    4298        .B      CMP      r0,r3
        0x08002fea:    d102        ..      BNE      0x8002ff2 ; mini_strcmp + 22
        0x08002fec:    7810        .x      LDRB     r0,[r2,#0]
        0x08002fee:    2800        .(      CMP      r0,#0
        0x08002ff0:    d1f6        ..      BNE      0x8002fe0 ; mini_strcmp + 4
        0x08002ff2:    7810        .x      LDRB     r0,[r2,#0]
        0x08002ff4:    780b        .x      LDRB     r3,[r1,#0]
        0x08002ff6:    4298        .B      CMP      r0,r3
        0x08002ff8:    dd01        ..      BLE      0x8002ffe ; mini_strcmp + 34
        0x08002ffa:    2001        .       MOVS     r0,#1
        0x08002ffc:    4770        pG      BX       lr
        0x08002ffe:    7810        .x      LDRB     r0,[r2,#0]
        0x08003000:    780b        .x      LDRB     r3,[r1,#0]
        0x08003002:    4298        .B      CMP      r0,r3
        0x08003004:    da02        ..      BGE      0x800300c ; mini_strcmp + 48
        0x08003006:    f04f30ff    O..0    MOV      r0,#0xffffffff
        0x0800300a:    e7f7        ..      B        0x8002ffc ; mini_strcmp + 32
        0x0800300c:    2000        .       MOVS     r0,#0
        0x0800300e:    e7f5        ..      B        0x8002ffc ; mini_strcmp + 32
    i.search_best_freeblock
    search_best_freeblock
        0x08003010:    b570        p.      PUSH     {r4-r6,lr}
        0x08003012:    4605        .F      MOV      r5,r0
        0x08003014:    2400        .$      MOVS     r4,#0
        0x08003016:    480f        .H      LDR      r0,[pc,#60] ; [0x8003054] = 0x20000050
        0x08003018:    6800        .h      LDR      r0,[r0,#0]
        0x0800301a:    6800        .h      LDR      r0,[r0,#0]
        0x0800301c:    490e        .I      LDR      r1,[pc,#56] ; [0x8003058] = 0xabcdef5a
        0x0800301e:    4288        .B      CMP      r0,r1
        0x08003020:    d101        ..      BNE      0x8003026 ; search_best_freeblock + 22
        0x08003022:    2001        .       MOVS     r0,#1
        0x08003024:    e000        ..      B        0x8003028 ; search_best_freeblock + 24
        0x08003026:    2000        .       MOVS     r0,#0
        0x08003028:    b920         .      CBNZ     r0,0x8003034 ; search_best_freeblock + 36
        0x0800302a:    2282        ."      MOVS     r2,#0x82
        0x0800302c:    a10b        ..      ADR      r1,{pc}+0x30 ; 0x800305c
        0x0800302e:    a012        ..      ADR      r0,{pc}+0x4a ; 0x8003078
        0x08003030:    f7fffede    ....    BL       mini_printf ; 0x8002df0
        0x08003034:    4807        .H      LDR      r0,[pc,#28] ; [0x8003054] = 0x20000050
        0x08003036:    6804        .h      LDR      r4,[r0,#0]
        0x08003038:    e007        ..      B        0x800304a ; search_best_freeblock + 58
        0x0800303a:    f1050018    ....    ADD      r0,r5,#0x18
        0x0800303e:    68a1        .h      LDR      r1,[r4,#8]
        0x08003040:    4281        .B      CMP      r1,r0
        0x08003042:    d901        ..      BLS      0x8003048 ; search_best_freeblock + 56
        0x08003044:    4620         F      MOV      r0,r4
        0x08003046:    bd70        p.      POP      {r4-r6,pc}
        0x08003048:    6964        di      LDR      r4,[r4,#0x14]
        0x0800304a:    2c00        .,      CMP      r4,#0
        0x0800304c:    d1f5        ..      BNE      0x800303a ; search_best_freeblock + 42
        0x0800304e:    4620         F      MOV      r0,r4
        0x08003050:    e7f9        ..      B        0x8003046 ; search_best_freeblock + 54
    $d
        0x08003052:    0000        ..      DCW    0
        0x08003054:    20000050    P..     DCD    536870992
        0x08003058:    abcdef5a    Z...    DCD    2882400090
        0x0800305c:    696e696d    mini    DCD    1768843629
        0x08003060:    534f5452    RTOS    DCD    1397707858
        0x08003064:    6d654d5c    \Mem    DCD    1835355484
        0x08003068:    5c79726f    ory\    DCD    1551463023
        0x0800306c:    5c637253    Src\    DCD    1550021203
        0x08003070:    70616568    heap    DCD    1885431144
        0x08003074:    0000632e    .c..    DCD    25390
        0x08003078:    6f727245    Erro    DCD    1869771333
        0x0800307c:    73253a72    r:%s    DCD    1931819634
        0x08003080:    0d64252c    ,%d.    DCD    224666924
        0x08003084:    0000000a    ....    DCD    10
    $t
    i.soft_timer_guard_task
    soft_timer_guard_task
        0x08003088:    e049        I.      B        0x800311e ; soft_timer_guard_task + 150
        0x0800308a:    2400        .$      MOVS     r4,#0
        0x0800308c:    e041        A.      B        0x8003112 ; soft_timer_guard_task + 138
        0x0800308e:    ebc400c4    ....    RSB      r0,r4,r4,LSL #3
        0x08003092:    4923        #I      LDR      r1,[pc,#140] ; [0x8003120] = 0x200001ac
        0x08003094:    eb010080    ....    ADD      r0,r1,r0,LSL #2
        0x08003098:    7900        .y      LDRB     r0,[r0,#4]
        0x0800309a:    2801        .(      CMP      r0,#1
        0x0800309c:    d137        7.      BNE      0x800310e ; soft_timer_guard_task + 134
        0x0800309e:    ebc400c4    ....    RSB      r0,r4,r4,LSL #3
        0x080030a2:    eb010080    ....    ADD      r0,r1,r0,LSL #2
        0x080030a6:    7940        @y      LDRB     r0,[r0,#5]
        0x080030a8:    2801        .(      CMP      r0,#1
        0x080030aa:    d130        0.      BNE      0x800310e ; soft_timer_guard_task + 134
        0x080030ac:    ebc401c4    ....    RSB      r1,r4,r4,LSL #3
        0x080030b0:    4a1b        .J      LDR      r2,[pc,#108] ; [0x8003120] = 0x200001ac
        0x080030b2:    eb020181    ....    ADD      r1,r2,r1,LSL #2
        0x080030b6:    6948        Hi      LDR      r0,[r1,#0x14]
        0x080030b8:    4780        .G      BLX      r0
        0x080030ba:    2000        .       MOVS     r0,#0
        0x080030bc:    ebc401c4    ....    RSB      r1,r4,r4,LSL #3
        0x080030c0:    4a17        .J      LDR      r2,[pc,#92] ; [0x8003120] = 0x200001ac
        0x080030c2:    eb020181    ....    ADD      r1,r2,r1,LSL #2
        0x080030c6:    7108        .q      STRB     r0,[r1,#4]
        0x080030c8:    ebc400c4    ....    RSB      r0,r4,r4,LSL #3
        0x080030cc:    4611        .F      MOV      r1,r2
        0x080030ce:    eb010080    ....    ADD      r0,r1,r0,LSL #2
        0x080030d2:    7c80        .|      LDRB     r0,[r0,#0x12]
        0x080030d4:    2801        .(      CMP      r0,#1
        0x080030d6:    d113        ..      BNE      0x8003100 ; soft_timer_guard_task + 120
        0x080030d8:    ebc400c4    ....    RSB      r0,r4,r4,LSL #3
        0x080030dc:    eb010080    ....    ADD      r0,r1,r0,LSL #2
        0x080030e0:    68c0        .h      LDR      r0,[r0,#0xc]
        0x080030e2:    4910        .I      LDR      r1,[pc,#64] ; [0x8003124] = 0x20000030
        0x080030e4:    6809        .h      LDR      r1,[r1,#0]
        0x080030e6:    4408        .D      ADD      r0,r0,r1
        0x080030e8:    ebc401c4    ....    RSB      r1,r4,r4,LSL #3
        0x080030ec:    eb020181    ....    ADD      r1,r2,r1,LSL #2
        0x080030f0:    6088        .`      STR      r0,[r1,#8]
        0x080030f2:    ebc401c4    ....    RSB      r1,r4,r4,LSL #3
        0x080030f6:    eb020081    ....    ADD      r0,r2,r1,LSL #2
        0x080030fa:    f7fefed1    ....    BL       Softimer_list_insert ; 0x8001ea0
        0x080030fe:    e006        ..      B        0x800310e ; soft_timer_guard_task + 134
        0x08003100:    2000        .       MOVS     r0,#0
        0x08003102:    ebc401c4    ....    RSB      r1,r4,r4,LSL #3
        0x08003106:    4a06        .J      LDR      r2,[pc,#24] ; [0x8003120] = 0x200001ac
        0x08003108:    eb020181    ....    ADD      r1,r2,r1,LSL #2
        0x0800310c:    7148        Hq      STRB     r0,[r1,#5]
        0x0800310e:    1c60        `.      ADDS     r0,r4,#1
        0x08003110:    b284        ..      UXTH     r4,r0
        0x08003112:    2c03        .,      CMP      r4,#3
        0x08003114:    dbbb        ..      BLT      0x800308e ; soft_timer_guard_task + 6
        0x08003116:    4804        .H      LDR      r0,[pc,#16] ; [0x8003128] = 0x20000044
        0x08003118:    8800        ..      LDRH     r0,[r0,#0]
        0x0800311a:    f7fdff2d    ..-.    BL       Pend_Task ; 0x8000f78
        0x0800311e:    e7b4        ..      B        0x800308a ; soft_timer_guard_task + 2
    $d
        0x08003120:    200001ac    ...     DCD    536871340
        0x08003124:    20000030    0..     DCD    536870960
        0x08003128:    20000044    D..     DCD    536870980
    $t
    i.sole_list_insert
    sole_list_insert
        0x0800312c:    4a16        .J      LDR      r2,[pc,#88] ; [0x8003188] = 0x20000050
        0x0800312e:    6812        .h      LDR      r2,[r2,#0]
        0x08003130:    b912        ..      CBNZ     r2,0x8003138 ; sole_list_insert + 12
        0x08003132:    4a15        .J      LDR      r2,[pc,#84] ; [0x8003188] = 0x20000050
        0x08003134:    6010        .`      STR      r0,[r2,#0]
        0x08003136:    e025        %.      B        0x8003184 ; sole_list_insert + 88
        0x08003138:    4b13        .K      LDR      r3,[pc,#76] ; [0x8003188] = 0x20000050
        0x0800313a:    6882        .h      LDR      r2,[r0,#8]
        0x0800313c:    681b        .h      LDR      r3,[r3,#0]
        0x0800313e:    689b        .h      LDR      r3,[r3,#8]
        0x08003140:    429a        .B      CMP      r2,r3
        0x08003142:    d205        ..      BCS      0x8003150 ; sole_list_insert + 36
        0x08003144:    4a10        .J      LDR      r2,[pc,#64] ; [0x8003188] = 0x20000050
        0x08003146:    6812        .h      LDR      r2,[r2,#0]
        0x08003148:    6142        Ba      STR      r2,[r0,#0x14]
        0x0800314a:    4a0f        .J      LDR      r2,[pc,#60] ; [0x8003188] = 0x20000050
        0x0800314c:    6010        .`      STR      r0,[r2,#0]
        0x0800314e:    e019        ..      B        0x8003184 ; sole_list_insert + 88
        0x08003150:    4a0d        .J      LDR      r2,[pc,#52] ; [0x8003188] = 0x20000050
        0x08003152:    6811        .h      LDR      r1,[r2,#0]
        0x08003154:    e00d        ..      B        0x8003172 ; sole_list_insert + 70
        0x08003156:    6882        .h      LDR      r2,[r0,#8]
        0x08003158:    688b        .h      LDR      r3,[r1,#8]
        0x0800315a:    429a        .B      CMP      r2,r3
        0x0800315c:    d308        ..      BCC      0x8003170 ; sole_list_insert + 68
        0x0800315e:    6882        .h      LDR      r2,[r0,#8]
        0x08003160:    694b        Ki      LDR      r3,[r1,#0x14]
        0x08003162:    689b        .h      LDR      r3,[r3,#8]
        0x08003164:    429a        .B      CMP      r2,r3
        0x08003166:    d803        ..      BHI      0x8003170 ; sole_list_insert + 68
        0x08003168:    694a        Ji      LDR      r2,[r1,#0x14]
        0x0800316a:    6142        Ba      STR      r2,[r0,#0x14]
        0x0800316c:    6148        Ha      STR      r0,[r1,#0x14]
        0x0800316e:    e003        ..      B        0x8003178 ; sole_list_insert + 76
        0x08003170:    6949        Ii      LDR      r1,[r1,#0x14]
        0x08003172:    694a        Ji      LDR      r2,[r1,#0x14]
        0x08003174:    2a00        .*      CMP      r2,#0
        0x08003176:    d1ee        ..      BNE      0x8003156 ; sole_list_insert + 42
        0x08003178:    bf00        ..      NOP      
        0x0800317a:    694a        Ji      LDR      r2,[r1,#0x14]
        0x0800317c:    b912        ..      CBNZ     r2,0x8003184 ; sole_list_insert + 88
        0x0800317e:    6148        Ha      STR      r0,[r1,#0x14]
        0x08003180:    2200        ."      MOVS     r2,#0
        0x08003182:    6142        Ba      STR      r2,[r0,#0x14]
        0x08003184:    4770        pG      BX       lr
    $d
        0x08003186:    0000        ..      DCW    0
        0x08003188:    20000050    P..     DCD    536870992
    $t
    i.sole_list_remove
    sole_list_remove
        0x0800318c:    4601        .F      MOV      r1,r0
        0x0800318e:    684a        Jh      LDR      r2,[r1,#4]
        0x08003190:    f0224200    "..B    BIC      r2,r2,#0x80000000
        0x08003194:    4b11        .K      LDR      r3,[pc,#68] ; [0x80031dc] = 0x20000050
        0x08003196:    681b        .h      LDR      r3,[r3,#0]
        0x08003198:    685b        [h      LDR      r3,[r3,#4]
        0x0800319a:    f0234300    #..C    BIC      r3,r3,#0x80000000
        0x0800319e:    429a        .B      CMP      r2,r3
        0x080031a0:    d105        ..      BNE      0x80031ae ; sole_list_remove + 34
        0x080031a2:    4a0e        .J      LDR      r2,[pc,#56] ; [0x80031dc] = 0x20000050
        0x080031a4:    6812        .h      LDR      r2,[r2,#0]
        0x080031a6:    6952        Ri      LDR      r2,[r2,#0x14]
        0x080031a8:    4b0c        .K      LDR      r3,[pc,#48] ; [0x80031dc] = 0x20000050
        0x080031aa:    601a        .`      STR      r2,[r3,#0]
        0x080031ac:    e014        ..      B        0x80031d8 ; sole_list_remove + 76
        0x080031ae:    4a0b        .J      LDR      r2,[pc,#44] ; [0x80031dc] = 0x20000050
        0x080031b0:    6810        .h      LDR      r0,[r2,#0]
        0x080031b2:    e00d        ..      B        0x80031d0 ; sole_list_remove + 68
        0x080031b4:    6942        Bi      LDR      r2,[r0,#0x14]
        0x080031b6:    6852        Rh      LDR      r2,[r2,#4]
        0x080031b8:    f0224200    "..B    BIC      r2,r2,#0x80000000
        0x080031bc:    684b        Kh      LDR      r3,[r1,#4]
        0x080031be:    f0234300    #..C    BIC      r3,r3,#0x80000000
        0x080031c2:    429a        .B      CMP      r2,r3
        0x080031c4:    d103        ..      BNE      0x80031ce ; sole_list_remove + 66
        0x080031c6:    6942        Bi      LDR      r2,[r0,#0x14]
        0x080031c8:    6952        Ri      LDR      r2,[r2,#0x14]
        0x080031ca:    6142        Ba      STR      r2,[r0,#0x14]
        0x080031cc:    e003        ..      B        0x80031d6 ; sole_list_remove + 74
        0x080031ce:    6940        @i      LDR      r0,[r0,#0x14]
        0x080031d0:    6942        Bi      LDR      r2,[r0,#0x14]
        0x080031d2:    2a00        .*      CMP      r2,#0
        0x080031d4:    d1ee        ..      BNE      0x80031b4 ; sole_list_remove + 40
        0x080031d6:    bf00        ..      NOP      
        0x080031d8:    4770        pG      BX       lr
    $d
        0x080031da:    0000        ..      DCW    0
        0x080031dc:    20000050    P..     DCD    536870992
    $t
    i.task1
    task1
        0x080031e0:    b086        ..      SUB      sp,sp,#0x18
        0x080031e2:    2000        .       MOVS     r0,#0
        0x080031e4:    9005        ..      STR      r0,[sp,#0x14]
        0x080031e6:    9004        ..      STR      r0,[sp,#0x10]
        0x080031e8:    2400        .$      MOVS     r4,#0
        0x080031ea:    9003        ..      STR      r0,[sp,#0xc]
        0x080031ec:    e106        ..      B        0x80033fc ; task1 + 540
        0x080031ee:    a084        ..      ADR      r0,{pc}+0x212 ; 0x8003400
        0x080031f0:    f7fffdfe    ....    BL       mini_printf ; 0x8002df0
        0x080031f4:    488b        .H      LDR      r0,[pc,#556] ; [0x8003424] = 0x20000014
        0x080031f6:    7800        .x      LDRB     r0,[r0,#0]
        0x080031f8:    2835        5(      CMP      r0,#0x35
        0x080031fa:    d066        f.      BEQ      0x80032ca ; task1 + 234
        0x080031fc:    dc08        ..      BGT      0x8003210 ; task1 + 48
        0x080031fe:    f1a00030    ..0.    SUB      r0,r0,#0x30
        0x08003202:    2805        .(      CMP      r0,#5
        0x08003204:    d279        y.      BCS      0x80032fa ; task1 + 282
        0x08003206:    e8dff000    ....    TBB      [pc,r0]
    $d
        0x0800320a:    1610        ..      DCW    5648
        0x0800320c:    00453125    %1E.    DCD    4534565
    $t
        0x08003210:    2838        8(      CMP      r0,#0x38
        0x08003212:    d073        s.      BEQ      0x80032fc ; task1 + 284
        0x08003214:    dc04        ..      BGT      0x8003220 ; task1 + 64
        0x08003216:    2836        6(      CMP      r0,#0x36
        0x08003218:    d073        s.      BEQ      0x8003302 ; task1 + 290
        0x0800321a:    2837        7(      CMP      r0,#0x37
        0x0800321c:    d16d        m.      BNE      0x80032fa ; task1 + 282
        0x0800321e:    e088        ..      B        0x8003332 ; task1 + 338
        0x08003220:    2839        9(      CMP      r0,#0x39
        0x08003222:    d06d        m.      BEQ      0x8003300 ; task1 + 288
        0x08003224:    2861        a(      CMP      r0,#0x61
        0x08003226:    d1f9        ..      BNE      0x800321c ; task1 + 60
        0x08003228:    e0da        ..      B        0x80033e0 ; task1 + 512
        0x0800322a:    f7fffc51    ..Q.    BL       fault_test_by_div0 ; 0x8002ad0
        0x0800322e:    2000        .       MOVS     r0,#0
        0x08003230:    497c        |I      LDR      r1,[pc,#496] ; [0x8003424] = 0x20000014
        0x08003232:    7008        .p      STRB     r0,[r1,#0]
        0x08003234:    e0dd        ..      B        0x80033f2 ; task1 + 530
        0x08003236:    487c        |H      LDR      r0,[pc,#496] ; [0x8003428] = 0x2000001a
        0x08003238:    8800        ..      LDRH     r0,[r0,#0]
        0x0800323a:    f7fefe81    ....    BL       Start_Soft_Timer ; 0x8001f40
        0x0800323e:    487b        {H      LDR      r0,[pc,#492] ; [0x800342c] = 0x2000001c
        0x08003240:    8800        ..      LDRH     r0,[r0,#0]
        0x08003242:    f7fefe7d    ..}.    BL       Start_Soft_Timer ; 0x8001f40
        0x08003246:    a07a        z.      ADR      r0,{pc}+0x1ea ; 0x8003430
        0x08003248:    f7fffdd2    ....    BL       mini_printf ; 0x8002df0
        0x0800324c:    2000        .       MOVS     r0,#0
        0x0800324e:    4975        uI      LDR      r1,[pc,#468] ; [0x8003424] = 0x20000014
        0x08003250:    7008        .p      STRB     r0,[r1,#0]
        0x08003252:    e0ce        ..      B        0x80033f2 ; task1 + 530
        0x08003254:    4874        tH      LDR      r0,[pc,#464] ; [0x8003428] = 0x2000001a
        0x08003256:    8800        ..      LDRH     r0,[r0,#0]
        0x08003258:    f7fefeae    ....    BL       Stop_Soft_Timer ; 0x8001fb8
        0x0800325c:    4873        sH      LDR      r0,[pc,#460] ; [0x800342c] = 0x2000001c
        0x0800325e:    8800        ..      LDRH     r0,[r0,#0]
        0x08003260:    f7fefeaa    ....    BL       Stop_Soft_Timer ; 0x8001fb8
        0x08003264:    2000        .       MOVS     r0,#0
        0x08003266:    496f        oI      LDR      r1,[pc,#444] ; [0x8003424] = 0x20000014
        0x08003268:    7008        .p      STRB     r0,[r1,#0]
        0x0800326a:    e0c2        ..      B        0x80033f2 ; task1 + 530
        0x0800326c:    a075        u.      ADR      r0,{pc}+0x1d8 ; 0x8003444
        0x0800326e:    f7fffad7    ....    BL       device_find ; 0x8002820
        0x08003272:    4604        .F      MOV      r4,r0
        0x08003274:    b93c        <.      CBNZ     r4,0x8003286 ; task1 + 166
        0x08003276:    4620         F      MOV      r0,r4
        0x08003278:    f7fffb0a    ....    BL       device_init ; 0x8002890
        0x0800327c:    b918        ..      CBNZ     r0,0x8003286 ; task1 + 166
        0x0800327e:    a072        r.      ADR      r0,{pc}+0x1ca ; 0x8003448
        0x08003280:    f7fffdb6    ....    BL       mini_printf ; 0x8002df0
        0x08003284:    e002        ..      B        0x800328c ; task1 + 172
        0x08003286:    a076        v.      ADR      r0,{pc}+0x1da ; 0x8003460
        0x08003288:    f7fffdb2    ....    BL       mini_printf ; 0x8002df0
        0x0800328c:    2000        .       MOVS     r0,#0
        0x0800328e:    4965        eI      LDR      r1,[pc,#404] ; [0x8003424] = 0x20000014
        0x08003290:    7008        .p      STRB     r0,[r1,#0]
        0x08003292:    e0ae        ..      B        0x80033f2 ; task1 + 530
        0x08003294:    2100        .!      MOVS     r1,#0
        0x08003296:    4620         F      MOV      r0,r4
        0x08003298:    f7fffb2c    ..,.    BL       device_open ; 0x80028f4
        0x0800329c:    2200        ."      MOVS     r2,#0
        0x0800329e:    2101        .!      MOVS     r1,#1
        0x080032a0:    4620         F      MOV      r0,r4
        0x080032a2:    f7fffa89    ....    BL       device_control ; 0x80027b8
        0x080032a6:    2301        .#      MOVS     r3,#1
        0x080032a8:    aa04        ..      ADD      r2,sp,#0x10
        0x080032aa:    2100        .!      MOVS     r1,#0
        0x080032ac:    4620         F      MOV      r0,r4
        0x080032ae:    f7fffb5b    ..[.    BL       device_read ; 0x8002968
        0x080032b2:    4620         F      MOV      r0,r4
        0x080032b4:    f7fffa50    ..P.    BL       device_close ; 0x8002758
        0x080032b8:    f89d1010    ....    LDRB     r1,[sp,#0x10]
        0x080032bc:    a06d        m.      ADR      r0,{pc}+0x1b8 ; 0x8003474
        0x080032be:    f7fffd97    ....    BL       mini_printf ; 0x8002df0
        0x080032c2:    2000        .       MOVS     r0,#0
        0x080032c4:    4957        WI      LDR      r1,[pc,#348] ; [0x8003424] = 0x20000014
        0x080032c6:    7008        .p      STRB     r0,[r1,#0]
        0x080032c8:    e093        ..      B        0x80033f2 ; task1 + 530
        0x080032ca:    2000        .       MOVS     r0,#0
        0x080032cc:    9005        ..      STR      r0,[sp,#0x14]
        0x080032ce:    2100        .!      MOVS     r1,#0
        0x080032d0:    4620         F      MOV      r0,r4
        0x080032d2:    f7fffb0f    ....    BL       device_open ; 0x80028f4
        0x080032d6:    2200        ."      MOVS     r2,#0
        0x080032d8:    4611        .F      MOV      r1,r2
        0x080032da:    4620         F      MOV      r0,r4
        0x080032dc:    f7fffa6c    ..l.    BL       device_control ; 0x80027b8
        0x080032e0:    2301        .#      MOVS     r3,#1
        0x080032e2:    aa05        ..      ADD      r2,sp,#0x14
        0x080032e4:    2100        .!      MOVS     r1,#0
        0x080032e6:    4620         F      MOV      r0,r4
        0x080032e8:    f7fffbba    ....    BL       device_write ; 0x8002a60
        0x080032ec:    4620         F      MOV      r0,r4
        0x080032ee:    f7fffa33    ..3.    BL       device_close ; 0x8002758
        0x080032f2:    2000        .       MOVS     r0,#0
        0x080032f4:    494b        KI      LDR      r1,[pc,#300] ; [0x8003424] = 0x20000014
        0x080032f6:    7008        .p      STRB     r0,[r1,#0]
        0x080032f8:    e07b        {.      B        0x80033f2 ; task1 + 530
        0x080032fa:    e079        y.      B        0x80033f0 ; task1 + 528
        0x080032fc:    e038        8.      B        0x8003370 ; task1 + 400
        0x080032fe:    e000        ..      B        0x8003302 ; task1 + 290
        0x08003300:    e058        X.      B        0x80033b4 ; task1 + 468
        0x08003302:    2001        .       MOVS     r0,#1
        0x08003304:    9005        ..      STR      r0,[sp,#0x14]
        0x08003306:    2100        .!      MOVS     r1,#0
        0x08003308:    4620         F      MOV      r0,r4
        0x0800330a:    f7fffaf3    ....    BL       device_open ; 0x80028f4
        0x0800330e:    2200        ."      MOVS     r2,#0
        0x08003310:    4611        .F      MOV      r1,r2
        0x08003312:    4620         F      MOV      r0,r4
        0x08003314:    f7fffa50    ..P.    BL       device_control ; 0x80027b8
        0x08003318:    2301        .#      MOVS     r3,#1
        0x0800331a:    aa05        ..      ADD      r2,sp,#0x14
        0x0800331c:    2100        .!      MOVS     r1,#0
        0x0800331e:    4620         F      MOV      r0,r4
        0x08003320:    f7fffb9e    ....    BL       device_write ; 0x8002a60
        0x08003324:    4620         F      MOV      r0,r4
        0x08003326:    f7fffa17    ....    BL       device_close ; 0x8002758
        0x0800332a:    2000        .       MOVS     r0,#0
        0x0800332c:    493d        =I      LDR      r1,[pc,#244] ; [0x8003424] = 0x20000014
        0x0800332e:    7008        .p      STRB     r0,[r1,#0]
        0x08003330:    e05f        _.      B        0x80033f2 ; task1 + 530
        0x08003332:    2001        .       MOVS     r0,#1
        0x08003334:    f64031b8    @..1    MOV      r1,#0xbb8
        0x08003338:    4603        .F      MOV      r3,r0
        0x0800333a:    4602        .F      MOV      r2,r0
        0x0800333c:    e9cd1000    ....    STRD     r1,r0,[sp,#0]
        0x08003340:    210a        .!      MOVS     r1,#0xa
        0x08003342:    4851        QH      LDR      r0,[pc,#324] ; [0x8003488] = 0x20000068
        0x08003344:    f000f9ae    ....    BL       xEventGroupWaitBits ; 0x80036a4
        0x08003348:    b118        ..      CBZ      r0,0x8003352 ; task1 + 370
        0x0800334a:    a050        P.      ADR      r0,{pc}+0x142 ; 0x800348c
        0x0800334c:    f7fffd50    ..P.    BL       mini_printf ; 0x8002df0
        0x08003350:    e002        ..      B        0x8003358 ; task1 + 376
        0x08003352:    a054        T.      ADR      r0,{pc}+0x152 ; 0x80034a4
        0x08003354:    f7fffd4c    ..L.    BL       mini_printf ; 0x8002df0
        0x08003358:    a059        Y.      ADR      r0,{pc}+0x168 ; 0x80034c0
        0x0800335a:    f7fffd49    ..I.    BL       mini_printf ; 0x8002df0
        0x0800335e:    484a        JH      LDR      r0,[pc,#296] ; [0x8003488] = 0x20000068
        0x08003360:    6801        .h      LDR      r1,[r0,#0]
        0x08003362:    a05d        ].      ADR      r0,{pc}+0x176 ; 0x80034d8
        0x08003364:    f7fffd44    ..D.    BL       mini_printf ; 0x8002df0
        0x08003368:    2000        .       MOVS     r0,#0
        0x0800336a:    492e        .I      LDR      r1,[pc,#184] ; [0x8003424] = 0x20000014
        0x0800336c:    7008        .p      STRB     r0,[r1,#0]
        0x0800336e:    e040        @.      B        0x80033f2 ; task1 + 530
        0x08003370:    2001        .       MOVS     r0,#1
        0x08003372:    f2413388    A..3    MOV      r3,#0x1388
        0x08003376:    2204        ."      MOVS     r2,#4
        0x08003378:    a903        ..      ADD      r1,sp,#0xc
        0x0800337a:    9000        ..      STR      r0,[sp,#0]
        0x0800337c:    485e        ^H      LDR      r0,[pc,#376] ; [0x80034f8] = 0x20000020
        0x0800337e:    6800        .h      LDR      r0,[r0,#0]
        0x08003380:    f7fdfe20    .. .    BL       QueueReceive ; 0x8000fc4
        0x08003384:    b118        ..      CBZ      r0,0x800338e ; task1 + 430
        0x08003386:    a05d        ].      ADR      r0,{pc}+0x176 ; 0x80034fc
        0x08003388:    f7fffd32    ..2.    BL       mini_printf ; 0x8002df0
        0x0800338c:    e002        ..      B        0x8003394 ; task1 + 436
        0x0800338e:    a064        d.      ADR      r0,{pc}+0x192 ; 0x8003520
        0x08003390:    f7fffd2e    ....    BL       mini_printf ; 0x8002df0
        0x08003394:    a04a        J.      ADR      r0,{pc}+0x12c ; 0x80034c0
        0x08003396:    f7fffd2b    ..+.    BL       mini_printf ; 0x8002df0
        0x0800339a:    9803        ..      LDR      r0,[sp,#0xc]
        0x0800339c:    f7fdf864    ..d.    BL       __aeabi_f2d ; 0x8000468
        0x080033a0:    4605        .F      MOV      r5,r0
        0x080033a2:    462a        *F      MOV      r2,r5
        0x080033a4:    460b        .F      MOV      r3,r1
        0x080033a6:    a067        g.      ADR      r0,{pc}+0x19e ; 0x8003544
        0x080033a8:    f7fffd22    ..".    BL       mini_printf ; 0x8002df0
        0x080033ac:    2000        .       MOVS     r0,#0
        0x080033ae:    491d        .I      LDR      r1,[pc,#116] ; [0x8003424] = 0x20000014
        0x080033b0:    7008        .p      STRB     r0,[r1,#0]
        0x080033b2:    e01e        ..      B        0x80033f2 ; task1 + 530
        0x080033b4:    2301        .#      MOVS     r3,#1
        0x080033b6:    f2413288    A..2    MOV      r2,#0x1388
        0x080033ba:    496c        lI      LDR      r1,[pc,#432] ; [0x800356c] = 0x20000058
        0x080033bc:    4618        .F      MOV      r0,r3
        0x080033be:    f7fefa41    ..A.    BL       Semaphore_Take ; 0x8001844
        0x080033c2:    b118        ..      CBZ      r0,0x80033cc ; task1 + 492
        0x080033c4:    a06a        j.      ADR      r0,{pc}+0x1ac ; 0x8003570
        0x080033c6:    f7fffd13    ....    BL       mini_printf ; 0x8002df0
        0x080033ca:    e002        ..      B        0x80033d2 ; task1 + 498
        0x080033cc:    a06f        o.      ADR      r0,{pc}+0x1c0 ; 0x800358c
        0x080033ce:    f7fffd0f    ....    BL       mini_printf ; 0x8002df0
        0x080033d2:    a076        v.      ADR      r0,{pc}+0x1da ; 0x80035ac
        0x080033d4:    f7fffd0c    ....    BL       mini_printf ; 0x8002df0
        0x080033d8:    2000        .       MOVS     r0,#0
        0x080033da:    4912        .I      LDR      r1,[pc,#72] ; [0x8003424] = 0x20000014
        0x080033dc:    7008        .p      STRB     r0,[r1,#0]
        0x080033de:    e008        ..      B        0x80033f2 ; task1 + 530
        0x080033e0:    4878        xH      LDR      r0,[pc,#480] ; [0x80035c4] = 0x20000016
        0x080033e2:    8800        ..      LDRH     r0,[r0,#0]
        0x080033e4:    f7fdfdc8    ....    BL       Pend_Task ; 0x8000f78
        0x080033e8:    2000        .       MOVS     r0,#0
        0x080033ea:    490e        .I      LDR      r1,[pc,#56] ; [0x8003424] = 0x20000014
        0x080033ec:    7008        .p      STRB     r0,[r1,#0]
        0x080033ee:    e000        ..      B        0x80033f2 ; task1 + 530
        0x080033f0:    bf00        ..      NOP      
        0x080033f2:    bf00        ..      NOP      
        0x080033f4:    f44f707a    O.zp    MOV      r0,#0x3e8
        0x080033f8:    f7fdff90    ....    BL       RTOS_Delay ; 0x800131c
        0x080033fc:    e6f7        ..      B        0x80031ee ; task1 + 14
    $d
        0x080033fe:    0000        ..      DCW    0
        0x08003400:    31313131    1111    DCD    825307441
        0x08003404:    31313131    1111    DCD    825307441
        0x08003408:    31313131    1111    DCD    825307441
        0x0800340c:    31313131    1111    DCD    825307441
        0x08003410:    31313131    1111    DCD    825307441
        0x08003414:    31313131    1111    DCD    825307441
        0x08003418:    31313131    1111    DCD    825307441
        0x0800341c:    0d313131    111.    DCD    221327665
        0x08003420:    0000000a    ....    DCD    10
        0x08003424:    20000014    ...     DCD    536870932
        0x08003428:    2000001a    ...     DCD    536870938
        0x0800342c:    2000001c    ...     DCD    536870940
        0x08003430:    72617453    Star    DCD    1918989395
        0x08003434:    6f535f74    t_So    DCD    1867734900
        0x08003438:    545f7466    ft_T    DCD    1415541862
        0x0800343c:    72656d69    imer    DCD    1919249769
        0x08003440:    00000a0d    ....    DCD    2573
        0x08003444:    0044454c    LED.    DCD    4474188
        0x08003448:    2044454c    LED     DCD    541345100
        0x0800344c:    69766564    devi    DCD    1769366884
        0x08003450:    69206563    ce i    DCD    1763730787
        0x08003454:    61662073    s fa    DCD    1634082931
        0x08003458:    0d206c69    il .    DCD    220228713
        0x0800345c:    0000000a    ....    DCD    10
        0x08003460:    2044454c    LED     DCD    541345100
        0x08003464:    69766564    devi    DCD    1769366884
        0x08003468:    69206563    ce i    DCD    1763730787
        0x0800346c:    4b4f2073    s OK    DCD    1263476851
        0x08003470:    000a0d20     ...    DCD    658720
        0x08003474:    625f7872    rx_b    DCD    1650423922
        0x08003478:    65666675    uffe    DCD    1701209717
        0x0800347c:    203d2072    r =     DCD    540876914
        0x08003480:    0a0d6425    %d..    DCD    168649765
        0x08003484:    00000000    ....    DCD    0
        0x08003488:    20000068    h..     DCD    536871016
        0x0800348c:    6b736154    Task    DCD    1802723668
        0x08003490:    61772031    1 wa    DCD    1635196977
        0x08003494:    45207469    it E    DCD    1159754857
        0x08003498:    746e6576    vent    DCD    1953391990
        0x0800349c:    204b4f20     OK     DCD    541806368
        0x080034a0:    00000a0d    ....    DCD    2573
        0x080034a4:    6b736154    Task    DCD    1802723668
        0x080034a8:    61772031    1 wa    DCD    1635196977
        0x080034ac:    45207469    it E    DCD    1159754857
        0x080034b0:    746e6576    vent    DCD    1953391990
        0x080034b4:    69614620     Fai    DCD    1767982624
        0x080034b8:    0a0d206c    l ..    DCD    168632428
        0x080034bc:    00000000    ....    DCD    0
        0x080034c0:    6b736154    Task    DCD    1802723668
        0x080034c4:    a7e82031    1 ..    DCD    2817007665
        0x080034c8:    a499e9a3    ....    DCD    2761550243
        0x080034cc:    e5bb98e9    ....    DCD    3854276841
        0x080034d0:    0d209ea1    .. .    DCD    220241569
        0x080034d4:    0000000a    ....    DCD    10
        0x080034d8:    6b736154    Task    DCD    1802723668
        0x080034dc:    61772031    1 wa    DCD    1635196977
        0x080034e0:    65207469    it e    DCD    1696625769
        0x080034e4:    746e6576    vent    DCD    1953391990
        0x080034e8:    74616420     dat    DCD    1952539680
        0x080034ec:    203d2061    a =     DCD    540876897
        0x080034f0:    0a0d5825    %X..    DCD    168646693
        0x080034f4:    00000000    ....    DCD    0
        0x080034f8:    20000020     ..     DCD    536870944
        0x080034fc:    6b736154    Task    DCD    1802723668
        0x08003500:    75512031    1 Qu    DCD    1968250929
        0x08003504:    20657565    eue     DCD    543520101
        0x08003508:    7373656d    mess    DCD    1936942445
        0x0800350c:    20656761    age     DCD    543516513
        0x08003510:    65636552    Rece    DCD    1701012818
        0x08003514:    20657669    ive     DCD    543520361
        0x08003518:    0d204b4f    OK .    DCD    220220239
        0x0800351c:    0000000a    ....    DCD    10
        0x08003520:    6b736154    Task    DCD    1802723668
        0x08003524:    75512031    1 Qu    DCD    1968250929
        0x08003528:    20657565    eue     DCD    543520101
        0x0800352c:    7373656d    mess    DCD    1936942445
        0x08003530:    20656761    age     DCD    543516513
        0x08003534:    65636552    Rece    DCD    1701012818
        0x08003538:    20657669    ive     DCD    543520361
        0x0800353c:    6c696146    Fail    DCD    1818845510
        0x08003540:    000a0d20     ...    DCD    658720
        0x08003544:    6b736154    Task    DCD    1802723668
        0x08003548:    75512031    1 Qu    DCD    1968250929
        0x0800354c:    20657565    eue     DCD    543520101
        0x08003550:    7373656d    mess    DCD    1936942445
        0x08003554:    20656761    age     DCD    543516513
        0x08003558:    65636572    rece    DCD    1701012850
        0x0800355c:    20657669    ive     DCD    543520361
        0x08003560:    61746164    data    DCD    1635017060
        0x08003564:    25203d20     = %    DCD    622869792
        0x08003568:    000a0d66    f...    DCD    658790
        0x0800356c:    20000058    X..     DCD    536871000
        0x08003570:    6b736154    Task    DCD    1802723668
        0x08003574:    65532035    5 Se    DCD    1699946549
        0x08003578:    6870616d    maph    DCD    1752195437
        0x0800357c:    3165726f    ore1    DCD    828732015
        0x08003580:    6b615420     Tak    DCD    1801540640
        0x08003584:    4b4f2065    e OK    DCD    1263476837
        0x08003588:    000a0d20     ...    DCD    658720
        0x0800358c:    6b736154    Task    DCD    1802723668
        0x08003590:    65532035    5 Se    DCD    1699946549
        0x08003594:    6870616d    maph    DCD    1752195437
        0x08003598:    3165726f    ore1    DCD    828732015
        0x0800359c:    6b615420     Tak    DCD    1801540640
        0x080035a0:    61462065    e Fa    DCD    1631985765
        0x080035a4:    0d206c69    il .    DCD    220228713
        0x080035a8:    0000000a    ....    DCD    10
        0x080035ac:    6b736154    Task    DCD    1802723668
        0x080035b0:    a7e82035    5 ..    DCD    2817007669
        0x080035b4:    a499e9a3    ....    DCD    2761550243
        0x080035b8:    e5bb98e9    ....    DCD    3854276841
        0x080035bc:    0d209ea1    .. .    DCD    220241569
        0x080035c0:    0000000a    ....    DCD    10
        0x080035c4:    20000016    ...     DCD    536870934
    $t
    i.task2
    task2
        0x080035c8:    b51c        ..      PUSH     {r2-r4,lr}
        0x080035ca:    4823        #H      LDR      r0,[pc,#140] ; [0x8003658] = 0x40490fd0
        0x080035cc:    9001        ..      STR      r0,[sp,#4]
        0x080035ce:    e041        A.      B        0x8003654 ; task2 + 140
        0x080035d0:    a022        ".      ADR      r0,{pc}+0x8c ; 0x800365c
        0x080035d2:    f7fffc0d    ....    BL       mini_printf ; 0x8002df0
        0x080035d6:    482a        *H      LDR      r0,[pc,#168] ; [0x8003680] = 0x20000014
        0x080035d8:    7800        .x      LDRB     r0,[r0,#0]
        0x080035da:    2862        b(      CMP      r0,#0x62
        0x080035dc:    d006        ..      BEQ      0x80035ec ; task2 + 36
        0x080035de:    2863        c(      CMP      r0,#0x63
        0x080035e0:    d00c        ..      BEQ      0x80035fc ; task2 + 52
        0x080035e2:    2864        d(      CMP      r0,#0x64
        0x080035e4:    d020         .      BEQ      0x8003628 ; task2 + 96
        0x080035e6:    2865        e(      CMP      r0,#0x65
        0x080035e8:    d12e        ..      BNE      0x8003648 ; task2 + 128
        0x080035ea:    e025        %.      B        0x8003638 ; task2 + 112
        0x080035ec:    2101        .!      MOVS     r1,#1
        0x080035ee:    4825        %H      LDR      r0,[pc,#148] ; [0x8003684] = 0x20000068
        0x080035f0:    f7fefa4e    ..N.    BL       Set_Event_Bit ; 0x8001a90
        0x080035f4:    2000        .       MOVS     r0,#0
        0x080035f6:    4922        "I      LDR      r1,[pc,#136] ; [0x8003680] = 0x20000014
        0x080035f8:    7008        .p      STRB     r0,[r1,#0]
        0x080035fa:    e026        &.      B        0x800364a ; task2 + 130
        0x080035fc:    9801        ..      LDR      r0,[sp,#4]
        0x080035fe:    f7fcff33    ..3.    BL       __aeabi_f2d ; 0x8000468
        0x08003602:    4604        .F      MOV      r4,r0
        0x08003604:    4622        "F      MOV      r2,r4
        0x08003606:    460b        .F      MOV      r3,r1
        0x08003608:    a01f        ..      ADR      r0,{pc}+0x80 ; 0x8003688
        0x0800360a:    f7fffbf1    ....    BL       mini_printf ; 0x8002df0
        0x0800360e:    2001        .       MOVS     r0,#1
        0x08003610:    2300        .#      MOVS     r3,#0
        0x08003612:    2204        ."      MOVS     r2,#4
        0x08003614:    a901        ..      ADD      r1,sp,#4
        0x08003616:    9000        ..      STR      r0,[sp,#0]
        0x08003618:    481f        .H      LDR      r0,[pc,#124] ; [0x8003698] = 0x20000020
        0x0800361a:    6800        .h      LDR      r0,[r0,#0]
        0x0800361c:    f7fdfd12    ....    BL       QueueSend ; 0x8001044
        0x08003620:    2000        .       MOVS     r0,#0
        0x08003622:    4917        .I      LDR      r1,[pc,#92] ; [0x8003680] = 0x20000014
        0x08003624:    7008        .p      STRB     r0,[r1,#0]
        0x08003626:    e010        ..      B        0x800364a ; task2 + 130
        0x08003628:    491c        .I      LDR      r1,[pc,#112] ; [0x800369c] = 0x20000058
        0x0800362a:    2001        .       MOVS     r0,#1
        0x0800362c:    f7fef86a    ..j.    BL       Semaphore_Give ; 0x8001704
        0x08003630:    2000        .       MOVS     r0,#0
        0x08003632:    4913        .I      LDR      r1,[pc,#76] ; [0x8003680] = 0x20000014
        0x08003634:    7008        .p      STRB     r0,[r1,#0]
        0x08003636:    e008        ..      B        0x800364a ; task2 + 130
        0x08003638:    4819        .H      LDR      r0,[pc,#100] ; [0x80036a0] = 0x20000016
        0x0800363a:    8800        ..      LDRH     r0,[r0,#0]
        0x0800363c:    f7fef82e    ....    BL       Release_Task ; 0x800169c
        0x08003640:    2000        .       MOVS     r0,#0
        0x08003642:    490f        .I      LDR      r1,[pc,#60] ; [0x8003680] = 0x20000014
        0x08003644:    7008        .p      STRB     r0,[r1,#0]
        0x08003646:    e000        ..      B        0x800364a ; task2 + 130
        0x08003648:    bf00        ..      NOP      
        0x0800364a:    bf00        ..      NOP      
        0x0800364c:    f44f707a    O.zp    MOV      r0,#0x3e8
        0x08003650:    f7fdfe64    ..d.    BL       RTOS_Delay ; 0x800131c
        0x08003654:    e7bc        ..      B        0x80035d0 ; task2 + 8
    $d
        0x08003656:    0000        ..      DCW    0
        0x08003658:    40490fd0    ..I@    DCD    1078530000
        0x0800365c:    32323232    2222    DCD    842150450
        0x08003660:    32323232    2222    DCD    842150450
        0x08003664:    32323232    2222    DCD    842150450
        0x08003668:    32323232    2222    DCD    842150450
        0x0800366c:    32323232    2222    DCD    842150450
        0x08003670:    32323232    2222    DCD    842150450
        0x08003674:    32323232    2222    DCD    842150450
        0x08003678:    0d323232    222.    DCD    221393458
        0x0800367c:    0000000a    ....    DCD    10
        0x08003680:    20000014    ...     DCD    536870932
        0x08003684:    20000068    h..     DCD    536871016
        0x08003688:    75657551    Queu    DCD    1969583441
        0x0800368c:    6e655365    eSen    DCD    1852134245
        0x08003690:    66252064    d %f    DCD    1713709156
        0x08003694:    00000a0d    ....    DCD    2573
        0x08003698:    20000020     ..     DCD    536870944
        0x0800369c:    20000058    X..     DCD    536871000
        0x080036a0:    20000016    ...     DCD    536870934
    $t
    i.xEventGroupWaitBits
    xEventGroupWaitBits
        0x080036a4:    e92d5ff0    -.._    PUSH     {r4-r12,lr}
        0x080036a8:    4604        .F      MOV      r4,r0
        0x080036aa:    460d        .F      MOV      r5,r1
        0x080036ac:    4616        .F      MOV      r6,r2
        0x080036ae:    4698        .F      MOV      r8,r3
        0x080036b0:    e9dd9a0a    ....    LDRD     r9,r10,[sp,#0x28]
        0x080036b4:    2700        .'      MOVS     r7,#0
        0x080036b6:    f7fdf965    ..e.    BL       Enter_Critical ; 0x8000984
        0x080036ba:    4683        .F      MOV      r11,r0
        0x080036bc:    b93e        >.      CBNZ     r6,0x80036ce ; xEventGroupWaitBits + 42
        0x080036be:    6820         h      LDR      r0,[r4,#0]
        0x080036c0:    4028        (@      ANDS     r0,r0,r5
        0x080036c2:    42a8        .B      CMP      r0,r5
        0x080036c4:    d101        ..      BNE      0x80036ca ; xEventGroupWaitBits + 38
        0x080036c6:    2001        .       MOVS     r0,#1
        0x080036c8:    e007        ..      B        0x80036da ; xEventGroupWaitBits + 54
        0x080036ca:    2000        .       MOVS     r0,#0
        0x080036cc:    e005        ..      B        0x80036da ; xEventGroupWaitBits + 54
        0x080036ce:    6820         h      LDR      r0,[r4,#0]
        0x080036d0:    4028        (@      ANDS     r0,r0,r5
        0x080036d2:    b108        ..      CBZ      r0,0x80036d8 ; xEventGroupWaitBits + 52
        0x080036d4:    2001        .       MOVS     r0,#1
        0x080036d6:    e000        ..      B        0x80036da ; xEventGroupWaitBits + 54
        0x080036d8:    2000        .       MOVS     r0,#0
        0x080036da:    4607        .F      MOV      r7,r0
        0x080036dc:    2f01        ./      CMP      r7,#1
        0x080036de:    d038        8.      BEQ      0x8003752 ; xEventGroupWaitBits + 174
        0x080036e0:    f1ba0f00    ....    CMP      r10,#0
        0x080036e4:    d034        4.      BEQ      0x8003750 ; xEventGroupWaitBits + 172
        0x080036e6:    f1b90f00    ....    CMP      r9,#0
        0x080036ea:    d101        ..      BNE      0x80036f0 ; xEventGroupWaitBits + 76
        0x080036ec:    2700        .'      MOVS     r7,#0
        0x080036ee:    e030        0.      B        0x8003752 ; xEventGroupWaitBits + 174
        0x080036f0:    1d20         .      ADDS     r0,r4,#4
        0x080036f2:    491f        .I      LDR      r1,[pc,#124] ; [0x8003770] = 0x20000034
        0x080036f4:    6809        .h      LDR      r1,[r1,#0]
        0x080036f6:    f8405021    @.!P    STR      r5,[r0,r1,LSL #2]
        0x080036fa:    3014        .0      ADDS     r0,r0,#0x14
        0x080036fc:    491c        .I      LDR      r1,[pc,#112] ; [0x8003770] = 0x20000034
        0x080036fe:    6809        .h      LDR      r1,[r1,#0]
        0x08003700:    5446        FT      STRB     r6,[r0,r1]
        0x08003702:    2101        .!      MOVS     r1,#1
        0x08003704:    1d80        ..      ADDS     r0,r0,#6
        0x08003706:    4a1a        .J      LDR      r2,[pc,#104] ; [0x8003770] = 0x20000034
        0x08003708:    6812        .h      LDR      r2,[r2,#0]
        0x0800370a:    f8201012     ...    STRH     r1,[r0,r2,LSL #1]
        0x0800370e:    4658        XF      MOV      r0,r11
        0x08003710:    f7fdf942    ..B.    BL       Exit_Critical ; 0x8000998
        0x08003714:    4648        HF      MOV      r0,r9
        0x08003716:    f7fdfe01    ....    BL       RTOS_Delay ; 0x800131c
        0x0800371a:    f7fdf933    ..3.    BL       Enter_Critical ; 0x8000984
        0x0800371e:    4683        .F      MOV      r11,r0
        0x08003720:    2100        .!      MOVS     r1,#0
        0x08003722:    f104001e    ....    ADD      r0,r4,#0x1e
        0x08003726:    4a12        .J      LDR      r2,[pc,#72] ; [0x8003770] = 0x20000034
        0x08003728:    6812        .h      LDR      r2,[r2,#0]
        0x0800372a:    f8201012     ...    STRH     r1,[r0,r2,LSL #1]
        0x0800372e:    b93e        >.      CBNZ     r6,0x8003740 ; xEventGroupWaitBits + 156
        0x08003730:    6820         h      LDR      r0,[r4,#0]
        0x08003732:    4028        (@      ANDS     r0,r0,r5
        0x08003734:    42a8        .B      CMP      r0,r5
        0x08003736:    d101        ..      BNE      0x800373c ; xEventGroupWaitBits + 152
        0x08003738:    2001        .       MOVS     r0,#1
        0x0800373a:    e007        ..      B        0x800374c ; xEventGroupWaitBits + 168
        0x0800373c:    2000        .       MOVS     r0,#0
        0x0800373e:    e005        ..      B        0x800374c ; xEventGroupWaitBits + 168
        0x08003740:    6820         h      LDR      r0,[r4,#0]
        0x08003742:    4028        (@      ANDS     r0,r0,r5
        0x08003744:    b108        ..      CBZ      r0,0x800374a ; xEventGroupWaitBits + 166
        0x08003746:    2001        .       MOVS     r0,#1
        0x08003748:    e000        ..      B        0x800374c ; xEventGroupWaitBits + 168
        0x0800374a:    2000        .       MOVS     r0,#0
        0x0800374c:    4607        .F      MOV      r7,r0
        0x0800374e:    e000        ..      B        0x8003752 ; xEventGroupWaitBits + 174
        0x08003750:    2700        .'      MOVS     r7,#0
        0x08003752:    f1b80f01    ....    CMP      r8,#1
        0x08003756:    d104        ..      BNE      0x8003762 ; xEventGroupWaitBits + 190
        0x08003758:    2f01        ./      CMP      r7,#1
        0x0800375a:    d102        ..      BNE      0x8003762 ; xEventGroupWaitBits + 190
        0x0800375c:    6820         h      LDR      r0,[r4,#0]
        0x0800375e:    43a8        .C      BICS     r0,r0,r5
        0x08003760:    6020         `      STR      r0,[r4,#0]
        0x08003762:    4658        XF      MOV      r0,r11
        0x08003764:    f7fdf918    ....    BL       Exit_Critical ; 0x8000998
        0x08003768:    4638        8F      MOV      r0,r7
        0x0800376a:    e8bd9ff0    ....    POP      {r4-r12,pc}
    $d
        0x0800376e:    0000        ..      DCW    0
        0x08003770:    20000034    4..     DCD    536870964
    $d.realdata
    Region$$Table$$Base
        0x08003774:    08003794    .7..    DCD    134231956
        0x08003778:    20000000    ...     DCD    536870912
        0x0800377c:    00000058    X...    DCD    88
        0x08003780:    080026ce    .&..    DCD    134227662
        0x08003784:    080037ec    .7..    DCD    134232044
        0x08003788:    20000058    X..     DCD    536871000
        0x0800378c:    000015a8    ....    DCD    5544
        0x08003790:    080026de    .&..    DCD    134227678
    Region$$Table$$Limit

** Section #2 'RW_IRAM1' (SHT_PROGBITS) [SHF_ALLOC + SHF_WRITE]
    Size   : 88 bytes (alignment 4)
    Address: 0x20000000


** Section #3 'RW_IRAM1' (SHT_NOBITS) [SHF_ALLOC + SHF_WRITE]
    Size   : 5544 bytes (alignment 8)
    Address: 0x20000058


** Section #4 '.debug_abbrev' (SHT_PROGBITS)
    Size   : 1476 bytes


** Section #5 '.debug_frame' (SHT_PROGBITS)
    Size   : 3948 bytes


** Section #6 '.debug_info' (SHT_PROGBITS)
    Size   : 64976 bytes


** Section #7 '.debug_line' (SHT_PROGBITS)
    Size   : 18164 bytes


** Section #8 '.debug_loc' (SHT_PROGBITS)
    Size   : 7492 bytes


** Section #9 '.debug_macinfo' (SHT_PROGBITS)
    Size   : 427360 bytes


** Section #10 '.debug_pubnames' (SHT_PROGBITS)
    Size   : 4318 bytes


** Section #11 '.symtab' (SHT_SYMTAB)
    Size   : 9408 bytes (alignment 4)
    String table #12 '.strtab'
    Last local symbol no. 374


** Section #12 '.strtab' (SHT_STRTAB)
    Size   : 7028 bytes


** Section #13 '.note' (SHT_NOTE)
    Size   : 28 bytes (alignment 4)


** Section #14 '.comment' (SHT_PROGBITS)
    Size   : 29136 bytes


** Section #15 '.shstrtab' (SHT_STRTAB)
    Size   : 156 bytes


